@3195

LO KHAMS DRUG CU'I RE'U MIG

1 ME YOS...RAB BYUNG

2 SA 'BRUG  ...RNAM BYUNG

3 SA SBRUL...DKAR PO

4 LCAGS RTA...RAB MYOS

5 LCAGS LUG  ...SKYES BDAG

6 CHU SPREL...AANG GI RA

7 CHU BYA...DPAL GDONG

8 SHING KHYI...DNGOS PO

9 SHING PHAG  ...NA TSOD LDAN

10 ME BYI...'DZIN BYED

11 ME GLANG...DBANG PHYUG

12 SA STAG  ...'BRU MANG PO

13 SA YOS...MYOS LDAN  

14 LCAGS 'BRUG  ...RNAM GNON

15 LCAGS SBRUL...KHYU MCHOG

16 CHU RTA...SNA TSOGS

17 CHU LUG  ...NYI MA

18 SHING SPREL...NYI SGROL BYED

19 SHING BYA...SA SKYONG

20 ME KHYI...MI ZAD

21 ME PHAG  ...THAMS CAD 'DUL

22 SA BYI...KUN 'DZIN

23 SA GLANG...'GAL BA

24 LCAGS STAG  ...RNAM 'GYUR

25 LCAGS YOS...BONG BU

26 CHU 'BRUG  ...DGA' BA

27 CHU SBRUL...RNAM RGYAL

28 SHING RTA...RGYAL BA

29 SHING LUG  ...MYOS BYED

30 ME SPREL...GDONG NGAN

31 ME BYA...GSER 'PHYANG

32 SA KHYI...RNAM 'PHYANG

33 SA PHAG  ...SGYUR BYED

34 LCAGS BYI...KUN LDAN   

35 LCAGS GLANG...'PHAR BA

36 CHU STAG  ...DGE BYED

37 CHU YOS...MDZES BYED

38 SHING 'BRUG  ...KHRO MO

39 SHING SBRUL...SNA TSOGS DBYIG

40 ME RTA...ZIL GNON

41 ME LUG  ...SPRE'U

42 SA SPREL...PHUR BU

43 SA BYA...ZHI BA

44 LCAGS KHYI...THUN MONG

45 LCAGS PHAG  ...'GAL BYED

46 CHU BYI...YONGS 'DZIN

47 CHU GLANG...BAG MED

48 SHING STAG  ...KUN DGA'

49 SHING YOS...SRIN PO

50 ME 'BRUG  ...ME

51 ME SBRUL...DMAR SER CAN

52 SA RTA...DUS KYI PHO NYA

53 SA LUG  ...DON GRUB

54 LCAGS SPREL...DRAG PO

55 LCAGS BYA...BLO NGAN  

56 CHU KHYI...RNGA CHEN

57 CHU PHAG  ...KHRAG SKYUG

58 SHING BYI...MIG DMAR

59 SHING GLANG...KHRO BO

60 ME STAG  ...ZAD PA

@3196

BOD KYI LO RGYUS 'DAS PA'I LO TSIGS DANG SBYAR TE BSGRIGS PA'I
RE'U MIG

SNGON GYI LO RGYUS SMRA BA LA SNGA PHYI'I LO TSIGS SHES DGOS
PA NI GAL CHE BA YIN TE, LO RGYUS NI 'DAS PA'I LO

RGYUS YIN ZHING, 'DAS PA'I LO RGYUS RNAMS NI 'DAS ZIN PA'I LO
TSIGS DANG SBYAR TE RTOGS DGOS PA DANG, DE'ANG

'DAS PA'I LO RTZI BA LA THOG MA 'GO 'DZUGS SA'I LO ZHIG GTAN
LA 'KHEL DGOS PAS SNGAR BOD KYI LO RGYUS JI SNYED

CIG MCHIS PA DAG TU THOG MA'I LO 'GO 'DZUGS SA NI STON PA
SH'AKYA THUB PA MYA NGAN LAS 'DAS PA'I LO DE GA RANG DU

BRTZI BA YIN, DE LA'ANG MKHAS PA DAG GI BZHED TSUL MI 'DRA BA
SHIN TU MANG NA'ANG, 'DIR GTZO CHE BA GNYIS SU

DBYE STE BSHAD PA LA, DANG PO, PHUG LUGS STON PA'I 'DAS LO
NGOS 'DZIN TSUL DANG, GNYIS PA, GNAS BRTAN

SDE PA'I LUGS KYI STON PA'I 'DAS LO NGOS 'DZIN TSUL LO, DANG
PO PHUG LUGS LA'ANG MKHAS PA RNMAS KYI BZHED TSUL

MI 'DRA BA DU MA MCHIS PA LAS 'DIR NI RAB BYUNG BCU DRUG PA'I
ME LUG LOR BDUD 'JOMS RIN PO CHES MDZAD PA'I

CHOS 'BYUNG GI LE'U BRGYAD PA'I BSTAN RTZIS GZHIR BZUNG BA YIN
ZHING, DE LTAR NA SPYI LO'I SNGON GYI LO GRANGS BRGYAD  

BRGYA BRGYAD CU GYA GCIG PA LCAGS PHO 'BRUG GI LO LA STON PA
THUB PA'I DBANG PO MYA NGAN LAS 'DAS PA'I LO DE 'DAS

LO'I THOG MAR BRTZI ZHING, DE NAS RAB BYUNG BCU DRUG PA'I CHU
PHAG LO YAN LA LO GRANGS NYIS STONG BRGYAD BRGYA DRUG

CU RE BZHI 'DAS PA YIN, 'DAS LO LNGA PA SHING SPREL SNRON
ZLA'I TSES BCU'I NYI SHAR LA SLOB DPON CHEN PO PAD MA

'BYUNG GNAS SKU 'KHRUNGS, 'DAS LO BRGYA DANG RE GCIG PA LCAGS
SPREL LA 'PHAGS PA KLU SGRUB SKU 'KHRUNGS, 'DAS LO

BRGYA DANG DRUG CU RE DRUG PA SHING GLANG LA THEG MCHOG STON
PA DGA' RAB RDO RJE SKU 'KHRUNGS, 'DAS LO BRGYAD BRGYA  

BRGYAD CU GYA GCIG PA LCAGS SPREL LA YE SHU'I 'KHRUNGS LO STE
SPYI LO'I 'GO TSUGS,

GNYIS PA GNAS BRTAN SDE PA'I LUGS KYI STON PA'I 'DAS LO BRTZI
TSUL LA'ANG CI RIGS SHIG MCHIS PA'I 'DIR

NI RAB BYUNG BCU DRUG PA'I ME KHYI LOR MDO SMAD PA MKHAS DBANG
DGE 'DUN CHOS 'PHEL GYIS BRTZAMS PA'I DEB THER

DKAR PO DANG, DENG SKABS NANG PA'I RGYAL KHAB THUN MONG GI
'DOD TSUL LTAR NA SPYI LO'I SNGON GYI LO GRANGS LNGA BRGYA

BZHI BCU ZHE LNGA PA ME 'BRUG LA STON PA MYA NGAN LAS 'DAS
PA'I LO'I THOG MAR BRTZIS TE DA LTA'I RAB BYUNG BCU DRUG

PA'I CHU PHAG LO'I BAR LA LO GRANGS NYIS STONG LNGA BRGYA NYI
SHU RTZA BDUN 'DAS PA YIN, DE LTAR NA GONG GI PHUG LUGS

DANG GNAS BRTAN SDE PA'I LUGS GNYIS KYI STON PA'I 'DAS LO'I
BAR LA LO GRANGS SUM BRGYA SUM CU SO BDUN GYI KHYAD

YOD PA STE PHUG LUGS KYI 'DAS LO MANG BA DANG, GNAS BRTAN SDE
PA'I LUGS KYI 'DAS LO NYUNG BA'O,

DE LTAR STON PA'I 'DAS LO'I RNAM GZHAG MDO TZAM BSHAD NAS DA
NI BOD KYI RGYAL PO RIM BYUNG GI LO TSIGS

'GOD PA LA BOD RGYAL THOG MA GNYA' KHRI BTZAN PO NAS SPYI LO
MA TSUGS BAR GYI LO TSIGS KYI RIM PA NI SPYI LO'I GONG GI

@3197

LO GRANGS LUGS LDOG TU BRTZIS TE LO GRANGS DU SONG DANG, DE'I
LO RTAGS DANG KHAMS GANG YIN TZAM 'GOD RGYU

DANG, NANG DON YANG GAL CHE'I RIGS NYUNG SHAS LAS CHA TSANG BA
DANG ZHIB PHRA ZHIG 'GOD THABS MED PA DANG, SPYI

LO DANG PO NAS BZUNG BOD KYI LO KHAMS DANG SPYI LO GNYIS BSTAR
CHAGS SU BSGRIGS TE RE'U MIG BKOD PA YIN,

GNYA' KHRI BTZAN PO NAM BYON GYI THAD LA SNGON GYI MKHAS PA
DAG GI BZHED TSUL MI 'DRA BA DU MA ZHIG MCHIS KYANG 'DIR

NI BOD KYI BRTZI TSUL YONGS GRANGS LTAR NA SPYI LO'I GONG GI
LO GRANGS LUGS LDOG TU BRTZIS PA'I DRUG CU SKOR GSUM

PA'I SHING STAG LA GNYA' KHRI BTZAN PO BOD SPYI'I RJE BOR BYIN
NAS DA LTA'I RAB BYUNG BCU DRUG PA'I CHU PHAG BAR LA LO

GRANGS NYIS STONG BRGYA DANG DGU 'DAS NAS BCU PA YIN, SPYI LO
374 SHING KHYI LA LHA THO THO RI SNYAN BTZAN 'KHRUNGS,

SHING KHYI DE NAS BRTZIS PA'I LO DRUG CU PA CHU BYA SPYI LO
433 LA BOD DU DAM PA CHOS KYI DBU BRNYES SO, DE'ANG SNGON

BYON BOD KYI RGYAL PO RNAMS KYI MTSAN GYI RIM PA NI, GNYA'
KHRI BTZAN PO, MU KHRI BTZAN PO, DENG KHRI BTZAN PO, SO

KHRI BTZAN PO, MER KHRI BTZAN PO, GDAGS KHRI BTZAN PO, SRIB
KHRI BTZAN PO STE GNAM GYI KHRI BDUN DANG, GRI GUM

BTZAN PO, PU DE GUNG RGYAL TE STOD KYI STENG GNYIS, AE SHO
LEGS, DE SHO LEGS, THI SHO LEGS, GONG RU LEGS,

'BRONG ZHER LEGS, AI SHI LEGS TE BAR GYI LEGS DRUG ZA NAM ZIN
LDE, LDE 'PHRUL NAM GZHUNG BTZAN, SE SNOL

NAM LDE, SE SNOL PO LDE, LDE SNOL NAM, LDE SNOL PO, LDE RGYAL
PO, LDE SPRIN BTZAN TE SA LA LDE BRGYAD, RGYAL PO

TO RE LONG BTZAN, KHRI BTZAN NAM, KHRI SGRA DPUNG BTZAN, THOG
RJE THOG BTZAN, THO THO RI GNYAN BTZAN TE 'OG GI  

BTZAN LNGA BCAS BYON PA'I BTZAN BZHI PA THOG RJE THOG BTZAN
BAR RGYAL RABS NYI SHU RTZA BDUN GYIS CHAB SRID LO SUM

BRGYA BRGYAD CU THAM PA DANG, BTZAN LNGA PA THO THO RI GNYAN
BTZAN DANG, KHRI GNYAN GZUNGS SA BTZAN, 'BRONG GNYAN LDE RU

BTZAN, STAG RI GNYAN GZIGS BTZAN TE BAR GYI STENG GSUM DANG,
GNAM RI SRONG BTZAN BAR RGYAL RABS LNGA NAS

LO SUM BRGYA DON LNGA DANG, SRONG BTZAN SGAM PO DANG, GUNG RI
GUNG BTZAN, MANG SRONG MANG BTZAN, 'DUS SRONG

MANG PO RJE, KHRI LDE GTZUG BRTAN MES AAG TSOM CAN, KHRI SRONG
LDE'U BTZAN, MU NE BTZAN PO, MU RUG BTZAN PO,

MU TIG BTZAN PO, KHRI RAL PA CAN, GLANG DAR MA 'U DUM BTZAN
BAR RGYAL RABS BCU GCIG GIS CHAB SRID LO NYIS

BRGYA DON BDUN DANG, BOD SIL BUR GNAS PA'I DUS YUN LO SUM
BRGYA ZHE BDUN, DE NAS SKYA'I DPON RABS

NYI SHUS CHAB SRID LO DGU BCU GO DRUG DANG, PHAG GRU KHRI RABS
BCU GCIG GIS LO BRGYAD CU GYA DRUG DANG, RIN

SPUNGS PA'I MI THOG BZHIS CHAB SRID LO BRGYAD DANG SUM CU, SDE
PA GTZANG PA MI THOG GSUM GYIS CHAB SRID LO BDUN CU

DON DRUG DANG, DGA' LDAN PHO BRANG PAS RAB BYUNG BCU GCIG PA'I
CHU RTA NAS RAB BYUNG BCU DRUG PA'I SA PHAG LO'I

RAB SRID BSKYANGS,

DE LTAR BOD RGYAL RIM BYUNG GI LO TSIGS LAS SRONG BTZAN SGAM
PO YAN GYI LO TSIGS RNAMS NI RAGS PA TZAM

LAS 'GOD THABS DKA' BA BKOD MED, SRONG BTZAN 'KHRUNGS LO NAS
BZUNG BOD LO DANG SPYI LO SHAN SBYAR GYI RE'U

MIG BKOD YOD DO,

DE DAG KYANG LO RGYUS THOG SHOD TSUL SNA TSOGS YOD PA DANG,
BDAG CAG GI BTHONG RGYA DANG THOS RGYA CHUNG BA'I

DBANG GIS 'GAL BA'AM NOR BA'ANG YOD SRID PAS MKHYEN LDAN RNAMS
KYI DPYAD GZHI TZAM YIN,

@3198

SPYI LO,   LO KHAMS,   BYA   GZHAG

617   ME GLANG,   BU STON CHOS 'BYUNG DANG, KLONG CHEN RAB 'BYAMS
KYI CHOS 'BYUNG, RGYA YIG GI LO RGYUS, DEB THER DKAR PO SOGS
LO RGYUS KHAG MANG PO ZHIG TU BOD RGYAL SRONG BTZAN SGAM PO
'KHRUNGS PAR BSHAD,

618   SA STAG   RGYA'I LO RGYUS SHIG NA STAG RI GNYAN GZIGS 'DAS
PAR BSHAD,

619   SA YOS,

620   LCAGS 'BRUG

621   LCAGS SBRUL,

622   CHU RTA,

623   CHU LUG

624   SHING SPREL,   DUS 'KHOR LUGS KYI ME MKHA' RGYA MTSO'I 'GO
TSUGS,

625   SHING BYA,

626   ME KHYI,   THANG THA'E TZUNG RGYAL SAR 'KHOD,

627   ME PHAG

628   SA BYI,

629   SA GLANG,   LO RGYUS MANG CHE BAR SRONG BTZAN SGAM PO KHRI
LA 'KHOD PAR BSHAD, DEB DMAR SOGS LO RGYUS 'GA' ZHIG TU GNAM
RI SRONG BTZAN 'DAS PAR BSHAD,

630   LCAGS STAG

631   LCAGS YOS,

632   CHU 'BRUG

633   CHU SBRUL,   RGYA YIG GI LO RGYUS SHIG TU THU MI SAM BHO tA
RGYA GAR LA PHEBS PAR BSHAD,

634   SHING RTA,   MKHAS PA'I DGA' STON SOGS SU BAL BZA' KHRI
BTZUN SRONG BTZAN SGAM PO'I BTZUN MOR PHEBS PAR BSHAD,

635   SHING LUG   RGYAL RABS GSAL BA'I ME LONG SOGS SU DMAR PO'I
RI LA PHO BRANG GI RMANG BTING BAR BSHAD,

636   ME SPREL,   MKHAS PA'I DGA' STON DU RGYA BZA' KONG JO BOD DU
PHEBS PAR BSHAD,

637   ME BYA,

638   SA KHYI,

@3199

639   SA PHAG

640   LCAGS BYI,

641   LCAGS GLANG,   RGYA BZA' KONG JO SRONG BTZAN GYI BTZUN MOR
PHEBS, BDUD 'JOMS CHOS 'BYUNG SOGS SU LO 'DIR LHA SA'I GTZUG
LAG KHANG BZHENGS PAR 'DOD,

642   CHU STAG

643   CHU YOS,   'KHON STON GYIS PHA BONG KHAR PHO BRANG MA RU
BZHENGS PAR BSHAD,

644   SHING 'BRUG

645   SHING SBRUL,

646   ME RTA,

647   ME LUG

648   SA SPREL,

649   SA BYA,   THANG THA'E TZUNG 'DAS, THANG KA'O TZUNG KHRIR
'KHOD,

650   LCAGS KHYI,   TUN HONG GI GTER YOG DANG, RGYA YIG GI LO
RGYUS, BON GYI BYAMS MA ZER BA'I LO RGYUS, DEB THER DKAR PO
BCAS SU SRONG BTZAN DGUNG LO SO BZHI LAS MA BZHUGS PAR LO 'DIR
'DAS PA DANG MANG SRONG MANG BTZAN KHRIR 'KHOD PAR BSHAD

651   LCAGS PHAG

652   CHU BYI,

653   CHU GLANG,   LO RGYUS KHAG GCIG TU LHA SA'I GTZUG LAG KHANG
BZHENGS PAR BSHAD,

654   SHING STAG

655   SHING YOS,

656   ME 'BRUG

657   ME SBRUL,

658   SA RTA,

659   SA LUG

660   LCAGS SPREL,

661   LCAGS BYA,

662   CHU KHYI,

663   CHU PHAG

@3200

664   SHING BYI,   RGYA YIG GI LO RGYUS SU BLON PO 'GAR 'DAS PAR
BSHAD,

665   SHING GLANG,

666   ME STAG

667   ME YOS,   DEB THER DKAR POR LO 'DIR BLON PO 'GAR 'DAS PAR
BSHAD,

668   SA 'BRUG

669   SA SBRUL,   LO RGYUS 'GA' ZHIG TU SRONG BTZAN GYI SRAS GUNG
RI GUNG BTZAN 'KHRUNGS PAR BSHAD,

670   LCAGS RTA,

671   LCAGS LUG

672   CHU SPREL,

673   CHU BYA,

674   SHING KHYI,

675   SHING PHAG

676   ME BYI,   TUN HONG GI GTER YOG LTAR NA MANG SRONG MANG BTZAN
'DAS SHING 'DUS SRONG MANG PO RJE 'KHRUNGS PAR BSHAD,

677   ME GLANG,

678   SA STAG  

679   SA YOS,

680   LCAGS 'BRUG   RGYA'I YIG TSANG LTAR NA RGYA BZA' KONG JO
'DAS PAR BSHAD,

681   LCAGS SBRUL,   LO RGYUS 'GA' ZHIG TU GUNG RI GUNG BTZAN
RGYAL SAR BKOD PAR BSHAD,

682   CHU RTA,

683   CHU LUG

684   SHING SPREL,

685   SHING BYA,

686   ME KHYI,   LO RGYUS 'GA' ZHIG TU GUNG RI GUNG BTZAN GYI SRAS
MANG SRONG MANG BTZAN 'KHRUNGS PA DANG GUNG RI GUNG BTZAN 'DAS
PAR BSHAD,

687   ME PHAG

688   SA BYI,

689   SA GLANG,

@3201

690 LCAGS STAG

691 LCAGS YOS,

692 CHU 'BRUG

693 CHU SBRUL,

694 SHING RTA,

695 SHING LUG

696 ME SPREL,

697 ME BYA,

698 SA KHYI, MKHAS PA'I DGA' STON SOGS BOD KYI LO RGYUS PHAL
MO CHER SRONG BTZAN SGAM PO DGUNG LO BRGYAD CU RTZA GNYIS
BZHUGS TE LO 'DIR 'DAS PAR BSHAD,

699 SA PHAG

700 LCAGS BYI,

701 LCAGS GLANG,

702 CHU STAG

703 CHU YOS,

704 SHING 'BRUG  TUN HONG GI GTER YIG SOGS SU 'DUS SRONG 'DAS
SHING SRAS KHRI LDE GTZUG BRTAN (MES AOG TSOM) KHRIR 'KHOD PAR
BSHAD,

705 SHING SBRUL,

706 ME RTA,

707 ME LUG

708 SA SPREL,

709 SA BYA,

710 LCAGS KHYI, RGYA YIG GI LO RGYUS SU GYIM SHING KONG JO BOD
DU BSUS PAR BSHAD,

711 LCAGS PHAG

712 CHU BYI, LO RGYUS 'GA' ZHIG TU MANG SRONG MANG BTZAN 'DAS
PA DANG, LO DE LA 'DUS SRONG MANG PO RJE 'KHRUNGS PAR BSHAD,

713 CHU GLANG,

714 SHING STAG

@3202

715 SHING YOS,

716 ME 'BRUG

717 ME SBRUL,

718 SA RTA, BU STON SOGS LO RGYUS MANG PO ZHIG GI NANG DU LO
'DIR KHRI SRONG LDE BTZAN 'KHRUNGS PAR BSHAD,

719 SA LUG

720 LCAGS SPREL,

721 LCAGS BYA,

722 CHU KHYI,

723 CHU PHAG

724 SHING BYI,

725 SHING GLANG,

726 ME STAG

727 ME YOS

728 SA 'BRUG

729 SA SBRUL, GA-YU THOG RNYING MA YON TAN MGON PO 'KHRUNGS
PAR BSHAD,

730 LCAGS RTA, BEE DKAR SOGS SU KHRI SRONG LDE BTZAN 'KHRUNGS
PAR BSHAD,

731 LCAGS LUG

732 CHU SPREL,

733 CHU BYA,

734 SHING KHYI,

735 SHING PHAG

736 ME BYI,

737 ME GLANG,

738 SA STAG

739 SA YOS, TUN HONG GI GTER YIG TU GYIM SHING KONG JO 'DAS
PAR BSHAD,

740 LCAGS 'BRUG  LO RGYUS 'GA' ZHIG TU BOD RGYAL 'DUS SRONG
MANG PO RJE 'DAS PAR BSHAD PA DANG, KHRI LDE GTZUG BRTAN YAB
'DAS PA'I LO 'DIR 'KHRUNGS PAR BSHAD,

@3203

741 LCAGS SBRUL,

742 CHU RTA, TUN HONG GI GTER YIG TU SNA NAM BZA' LAS KHRI
SRONG LDE BTZAN 'KHRUNGS PAR BSHAD,

743 CHU LUG

744 SHING SPREL,

745 SHING BYA,

746 ME KHYI,

747 ME PHAG

748 SA BYI,

749 SA GLANG,

750 LCAGS STAG

751 LCAGS YOS,

752 CHU 'BRUG

753 CHU SBRUL,

754 SHING RTA,

755 SHING LUG  RGYA'I YIG TSANG LTAR NA MES AAG TSOM 'DAS SHING
KHRI SRONG LDE BTZAN KHRIR 'KHOD PAR BSHAD,

756 ME SPREL,

757 ME BYA,

758 SA KHYI,

759 SA PHAG

760 LCAGS BYI,

761 LCAGS GLANG,

762 CHU STAG  T'A LA'I LNGA PA'I GSUNG DU LO 'DIR BSAM YAS
GTZUG LAG KHANG BZHENGS 'GO TSUGS PAR BSHAD,

763 CHU YOS, TUN HONG GI YI GE DANG RGYA'I YIG TSANG NA BOD
DMAG GIS RGYA PHAM PAR BYAS TE RGYA NAG RGYAL PO SHIN CUR
BROS, BOD DMAG RGYAL SA KHRANG AAN DU SLEBS,

764 SHING 'BRUG

@3204

765 SHING SBRUL,

766 ME RTA,

767 ME LUG  T'A LA'I LNGA PA'I GSUNG DU LO 'DIR SAD MI MI BDUN
RAB TU BYUNG BAR BSHAD,

768 SA SPREL, GA-YU THOG RNYING MA'I RNAM THAR LTAR NA LO 'DIR
GA-YU THOG YON TAN MGON PO 'KHRUNGS PAR BSHAD,

769 SA BYA,

770 LCAGS KHYI,

771 LCAGS PHAG

772 CHU BYI,

773 CHU GLANG,

774 SHING STAG

775 SHING YOS,

776 ME 'BRUG

777 ME SBRUL,

778 SA RTA,

779 SA LUG

780 LCAGS SPREL,

781 LCAGS BYA,

782 CHU KHYI,

783 CHU PHAG

784 SHING BYI,

785 SHING GLANG, SUM PA MKHAN CHEN GYIS LO 'DIR GA-YU THOG YON
TAN MGON PO 'KHRUNGS PAR BSHAD,

786 ME STAG

787 ME YOS,

788 SA 'BRUG

789 SA SBRUL,

790 LCAGS RTA, BOD RGYAL KHRI SRONG LDE BTZAN 'KHRUNGS PAR LO
RGYUS PHAL MO CHER BSHAD,

@3205

791 LCAGS LUG

792 CHU SPREL,

793 CHU BYA,

794 SHING KHYI,

795 SHING PHAG

796 ME BYI,

797 ME GLANG,

798 SA STAG

799 SA YOS,

800 LCAGS 'BRUG

801 LCAGS SBRUL,

802 CHU RTA, MES AAG TSOM 'DAS SHING KHRI SRONG LDE BTZAN KHRI
LA 'KHOD PAR BSHAD,

803 CHU LUG

804 SHING SPREL,

805 SHING BYA,

806 ME KHYI,

807 ME PHAG

808 SA BYI,

809 SA GLANG,

810 LCAGS STAG  BDUD 'JOMS CHOS 'BYUNG SOGS SU SLOB DPON PADMA
BOD DU PHEBS TE BSAM YAS BZHENGS PAR BSHAD,

811 LCAGS YOS,

812 CHU 'BRUG

813 CHU SBRUL,

814 SHING RTA,

815 SHING LUG

816 ME SPREL,

817 ME BYA, RGYA YIG LO RGYUS RNYING PAR RAL PA CAN GYIS SRID
DBANG BZUNG BAR BSHAD,

@3206

818 SA KHYI,

819 SA PHAG

820 LCAGS BYI,

821 LCAGS GLANG,

822 CHU STAG  RGYA YIG GI LO RGYUS SU RGYA BOD GNYIS ZHI CHINGS
BZHAG STE KHRANG CHING MTHUN 'BREL RDO RING BTZUGS PAR BSHAD,
BOD YIG GI LO RGYUS 'GA' ZHIG TU KHRI SRONG LDE BTZAN GYI SRAS
MU NE BTZAN PO 'KHRUNGS PAR BSHAD,

823 CHU YOS, KHRI SRONG LDE BTZAN GYI SRAS MU TIG BTZAN PO
'KHRUNGS PAR LO RGYUS 'GA' ZHIG TU BSHAD,

824 SHING 'BRUG  KHRI SRONG LDE BTZAN GYI SRAS KHRI LDE SRONG
BTZAN NAM SAD NA LEGS MJING YON 'KHRUNGS PAR LO RGYUS 'GA'
ZHIG TU BSHAD,

825 SHING SBRUL,

826 ME RTA,

827 ME LUG  BDUD 'JOMS CHOS 'BYUNG SOGS SU SAD MI MI BDUN RAB
TU BYUNG BAR 'DOD,

828 SA SPREL,

829 SA BYA,

830 LCAGS KHYI,

831 LCAGS PHAG

832 CHU BYI,

833 CHU GLANG,

834 SHING STAG

835 SHING YOS,

836 ME 'BRUG

837 ME SBRUL,

838 SA RTA,

839 SA LUG

840 LCAGS SPREL,

@3207

841 LCAGS BYA, RDZOGS CHEN DPAL SPRUL GYIS GNUBS CHEN SANGS
RGYAS YE SHES 'KHRUNGS PAR 'DOD,

842 CHU KHYI,

843 CHU PHAG

844 SHING BYI, LO RGYUS 'GA' ZHIG TU KHRI SRONG LDE BTZAN 'DAS
PAR BSHAD,

845 SHING GLANG, BU STON CHOS 'BYUNG DU KHRI SRONG LDE BTZAN
'DAS PAR BSHAD,

846 ME STAG  LO RGYUS 'GA' ZHIG TU KHRI LDE SRONG BTZAN KHRIR
'KHOD PAR BSHAD,

847 ME YOS,

848 SA 'BRUG

849 SA SBRUL,

850 LCAGS RTA, DEB DMAR DANG RGYAL RABS GSAL ME SOGS SU MU NE
BTZAN PO YUM GYIS BKRONGS TE SAD NA LEGS MJING YON GYIS SRID
BSKYANGS PAR BSHAD,

851 LCAGS LUG

852 CHU SPREL,

853 CHU BYA,

854 SHING KHYI,

855 SHING PHAG

856 ME BYI,

857 ME GLANG,

858 SA STAG

859 SA YOS,

860 LCAGS 'BRUG  RGYA'I YIG TSANG LTAR NA 'DI NAS BZUNG RGYA
BOD KYI 'BREL BA CHAD PAR BSHAD,

861 LCAGS SBRUL,

862 CHU RTA,

863 CHU LUG  LO RGYUS 'GA' ZHIG TU SAD NA LEGS MJING YON GYI
SRAS GLANG DAR MA 'KHRUNGS PAR BSHAD,

864 SHING SPREL, BDUD 'JOMS CHOS 'BYUNG SOGS SU SLOB DPON
PADMA RNGA YAB GLING DU GSHEd PAR 'DOD,

@3208

865 SHING BYA,

866 ME KHYI, LO RGYUS 'GA' ZHIG TU SAD NA LEGS MJING YON GYI
SRAS KHRI RAL PA CAN 'KHRUNGS PAR BSHAD,

867 ME PHAG

868 SA BYI,

869 SA GLANG,

870 LCAGS STAG

871 LCAGS YOS,

872 CHU 'BRUG

873 CHU SBRUL,

874 SHING RTA,

875 SHING LUG

876 ME SPREL, DPAL SPRUL DANG 'JU MI PHAM SOGS KYIS SPREL
ZLA'I TSES BCU LA SLOB DPON PADMA RNGA YAB GLING DU GSHEGS PAR
'DOD,

877 ME BYA, DEB DMAR DANG MKHAS PA'I DGA' STON SOGS SU KHRI
LDE SRONG BTZAN NAM SAD NA LEGS MJING YON 'DAS PAR BSHAD, KHRI
RAL PA CAN KHRIR 'KHOD,

878 SA KHYI,

879 SA PHAG

880 LCAGS BYI,

881 LCAGS GLANG, DEB SNGON DU RAL PA CAN GYIS RGYA DANG 'DUM
MDZAD PAR BSHAD,

882 CHU STAG  DEB SNGON DANG MKHAS PA'I DGA' STON SOGS SU KHRI
RAL GYIS LHA SA'I RDO RING BTZUGS PAR BSHAD,

883 CHU YOS,

884 SHING 'BRUG

885 SHING SBRUL,

886 ME RTA,

887 ME LUG

888 SA SPREL,

@3209

889 SA BYA,

890 LCAGS KHYI,

891 LCAGS PHAG

892 CHU BYI, BDUD 'JOMS CHOS 'BYUNG SOGS SU BLA CHEN DGONGS PA
RAB GSAL 'KHRUNGS PAR 'DOD,

893 CHU GLANG,

894 SHING STAG

895 SHING YOS,

896 ME 'BRUG  DEB SNGON DU RAL PA CAN BKRONGS PA DANG, DAR MA
KHRIR 'KHOD PAR BSHAD,

897 ME SBRUL,

898 SA RTA,

899 SA LUG

900 LCAGS SPREL,

901 LCAGS BYA, DEB DMAR DANG BU STON CHOS 'BYUNG SOGS SU KHRI
RAL PA CAN BKRONGS PAR BSHAD PA DANG DEB SNGON SOGS SU GLANG
DAR MA KHRI LA BKOD DE CHOS LUGS BSNUBS PAR BSHAD,

902 CHU KHYI,

903 CHU PHAG

904 SHING BYI,

905 SHING GLANG,

906 ME STAG  MKHAS PA'I DGA' STON SOGS LO RGYUS 'GA' ZHIG TU
LHA LUNG DPAL RDOR GYIS GLANG DAR BKRONGS PAR BSHAD,

907 ME YOS, MKHAS PA'I DGA' STON DU GLANG DAR GYI SRAS GNAM
LDE 'OD SRUNGS DANG KHRI LDE YUM BRTAN 'KHRUNGS PAR BSHAD,

908 SA 'BRUG

909 SA SBRUL,

910 LCAGS RTA,

911 LCAGS LUG

@3210

912 CHU SPREL,

913 CHU BYA,

914 SHING KHYI,

915 SHING PHAG

916 ME BYI,

917 ME GLANG,

918 SA STAG

919 SA YOS,

920 LCAGS 'BRUG

921 LCAGS SBRUL,

922 CHU RTA,

923 CHU LUG

924 SHING SPREL,

925 SHING BYA, MKHAS PA'I DGA' STON DU 'OD SRUNGS KYI SRAS
DPAL 'KHOR BTZAN 'KHRUNGS PAR BSHAD,

926 ME KHYI,

927 ME PHAG

928 SA BYI,

929 SA GLANG, 'DI LO NAS BZUNG 'BANGS KYI KHENG LOG RIM PAR
BYUNG TSUL MKHAS PA'I DGA' STON SOGS SU BSHAD,

930 LCAGS STAG

931 LCAGS YOS,

932 CHU 'BRUG

933 CHU SBRUL,

934 SHING RTA,

935 SHING LUG

936 ME SPREL,

@3211

937 ME BYA, DEB DMAR DANG MKHAS PA'I DGA' STON SOGS SU SHUD PU
STAG RTZE SOGS MI BZHIS BOD RGYAL BANG SO RNAMS BGOS NAS BRUS
PAR BSHAD,

938 SA KHYI,

939 SA PHAG

940 LCAGS BYI,

941 LCAGS GLANG,

942 CHU STAG

943 CHU YOS,

944 SHING 'BRUG

945 SHING SBRUL, MKHAS PA'I DGA' STON DU GNAM LDE 'OD SRUNGS
'DAS PA DANG, SRAS DPAL 'KHOR BTZAN KHRIR 'KHOD PAR BSHAD,

946 ME RTA,

947 ME LUG

948 SA SPREL,

949 SA BYA,

950 LCAGS KHYI,

951 LCAGS PHAG

952 CHU BYI,

953 CHU GLANG, BDUD 'JOMS CHOS 'BYUNG SOGS SU BSTAN PA PHYI DAR
GYI 'GO TSUGS PAR 'DOD,

954 SHING STAG

955 SHING YOS, MKHAS PA'I DGA' STON DU DPAL 'KHOR BTZAN STAG
RTZE GNYAGS KYIS BKRONGS PAR BSHAD,

956 ME 'BRUG

957 ME SBRUL,

958 SA RTA, BDUD 'JOMS CHOS 'BYUNG SOGS SU LO TZ'A BA RIN CHEN
BZANG PO 'KHRUNGS PAR 'DOD,

959 SA LUG

@3212

960 LCAGS SPREL,

961 LCAGS BYA,

962 CHU KHYI,

963 CHU PHAG

964 SHING BYI,

965 SHING GLANG,

966 ME STAG

967 ME YOS, BU STON CHOS 'BYUNG DU DAR MA'I SRAS 'OD SRUNGS 'DAS
PA DANG, DPAL 'KHOR BTZAN KHRI LA 'KHOD PAR BSHAD,

968 SA 'BRUG

969 SA SBRUL,

970 LCAGS RTA, DEB SNGON SOGS SU LO CHEN RIN BZANG RAB TU BYUNG
BAR BSHAD,

971 LCAGS LUG

972 CHU SPREL,

973 CHU BYA,

974 SHING KHYI,

975 SHING PHAG  DEB SNGON DU BLA CHEN PO 'DAS PAR BSHAD,

976 ME BYI, DEB SNGON DU ZHANG SNA NAM RDO RJE DBANG PHYUG
'KHRUNGS PAR BSHAD,

977 ME GLANG,

978 SA STAG  BDUD 'JOMS CHOS 'BYUNG SOGS SU MKHAS GRUB KHYUNG PO
RNAL 'BYOR TSUL KHRIMS MGON PO 'KHRUNGS PAR 'DOD PA DANG DEB
SNGON SOGS SU DBUS SU PHYI DAR GYI DGE 'DUN 'GO TSUGS PAR BSHAD,

979 SA YOS,

980 LCAGS 'BRUG

981 LCAGS SBRUL,

982 CHU RTA, BDUD 'JOMS CHOS 'BYUNG SOGS SU JO BO RJE AA TI SHA
'KHRUNGS PAR 'DOD,

983 CHU LUG

984 SHING SPREL,

@3213

985 SHING BYA, BU STON CHOS 'BYUNG DU DPAL 'KHOR BTZAN 'DAS PAR
BZHED,

986 ME KHYI,

987 ME PHAG

988 SA BYI,

989 SA GLANG,

990 LCAGS STAG

991 LCAGS YOS,

992 CHU 'BRUG

993 CHU SBRUL,

994 SHING RTA,

995 SHING LUG

996 ME SPREL,

997 ME BYA,

998 SA KHYI,

999 SA PHAG

1000 LCAGS BYI,

1001 LCAGS GLANG,

1002 CHU STAG

1003 CHU YOS,

1004 SHING 'BRUG  BDUD 'JOMS CHOS 'BYUNG SOGS SU 'BROM STON
RGYAL BA'I 'BYUNG GNAS 'KHRUNGS PAR 'DOD, DEB SNGON DU RGYAL GYI
GLAN TSUL BYANG 'KHRUNGS PAR BSHAD,

1005 SHING SBRUL, DEB SNGON DU 'BROM STON LO 'DI LA 'KHRUNGS PAR
BSHAD,

1006 ME RTA,

1007 ME LUG

1008 SA SPREL,

1009 SA BYA, DEB SNGON SOGS SU KLU MES KYIS LA MOR 'GYEL GYI LHA
KHANG BZHENGS PAR BSHAD,

1010 LCAGS KHYI, DEB SNGON LAS GLAN YE SHES 'BAR DANG RNGOG
BYANG CHUB 'BYUNG GNAS RAB BYUNG

@3214

MDZAD PAR BSHAD,

1011 LCAGS PHAG  SUM PA'I CHOS 'BYUNG DU NAG TSO LO TZ'A BA TSUL
KHRIMS RGYAL BA DANG, KHU STON BRTZON 'GRUS GA-YUNG DRUNG, BTZAN
KHA BO CHE RNAMS 'KHRUNGS PA DANG, RNGOG BYANG CHUB 'BYUNG GNAS
KYIS YER BA PA RENGS BRTZIGS PAR BSHAD,

1012 CHU BYI, BDUD 'JOMS CHOS 'BYUNG SOGS SU MAR PA LO TZ'A
DANG, GTER STON GRA PA MNGON SHES 'KHRUNGS PAR 'DOD PA DANG,
ZHANG SNA NAM GYIS RGYAL LHA KHANG BZHENGS PAR BSHAD,

1013 CHU GLANG,

1014 SHING STAG  BDUD 'JOMS CHOS 'BYUNG LTAR NA LO 'DIR ZUR
CHUNG BA 'KHRUNGS PAR 'DOD,

1015 SHING YOS,

1016 ME 'BRUG  RVA LO TZ'A'I RNAM THAR DU LO 'DIR RVA LO
'KHRUNGS PAR BSHAD,

1017 ME SBRUL,

1018 SA RTA,

1019 SA LUG

1020 LCAGS SPREL,

1021 LCAGS BYA,

1022 CHU KHYI,

1023 CHU PHAG  SUM PA'I CHOS 'BYUNG SOGS SU RNGOG CHOS RDOR
'KHRUNGS PAR BSHAD,

1024 SHING BYI,

1025 SHING GLANG,

1026 ME STAG

SPYI LO, RAB BYUNG,  BYA   GZHAG

1027 RAB BYUNG DANG PO, ME YOS, DUS 'KHOR GYI RGYUD 'GREL RGYA
GAR DU SPYAN DRANGS, PO TO BA 'KHRUNGS, NA RO PA GSHES, RGYA GAR
DU RGYAL PO BIRYA PA LA DANG, NA LEN DRAR MKHAS PA SGO DRUG GI
DUS SMAD TZAM,

1028 1) SA 'BRUG  MA CIG ZHVA MA LCAM SRING GI BLA MA SE STON
KUN RIG 'KHRUNGS, DUS 'KHOR RGYUD 'GREL BOD SKAD DU BSGYUR, 1029
1) SA SBRUL,

1030 1) LCAGS RTA, ME TRI BAS AO RGYAN DU SNGAGS KYI SPYOD PA
MDZAD,

@3215

1031 1) LCAGS LUG  PO TO BA 'KHRUNGS PAR DEB SNGON LAS BSHAD,
DGE BSHES PHU CHUNG BA 'KHRUNGS, BDUD 'JOMS PAS MA CIG LAB SGRON
'KHRUNGS PAR BSHAD, GDONG THOG PAS KYANG DE LTAR 'DOD,

1032 1) CHU SPREL, STOD LUNG PA CHEN PO 'KHRUNGS, SHIS ZH'A
RGYAL RABS 'GO TSUGS,

1033 1) CHU BYA, SPYAN SNGA BA 'KHRUNGS PAR PHAL CHER 'DOD,

1034 1) SHING KHYI, JO BOS RTOG GE 'BAR BA GSUNGS DUS DA NI LO
NYI SHU NA BOD DU GDUNG 'JOG GSUNGS, 'KHON DKON MCHOG RGYAL PO
'KHRUNGS,

1035 1) SHING PHAG  BLA CHEN DGONGS PA RAB GSAL GSHEGS, (BRTAG)

1036 1) ME BYI, RNGOG CHOS SKU RDO RJE 'KHRUNGS, (BRTAG)

1037 1) ME GLANG, NAG TSO LO TZ'A BA JO BO SPYAN 'DREN PAR BYON,
BSTOD PA LTAR NA JO BO PHEBS PAR BSHAD,

1038 1) SA STAG  SPYAN SNGA BA 'KHRUNGS PAR DEB SNGON LAS BSHAD,
BSTOD PA LTAR NA AA TI SHA BAL POR BYON, BDUD 'JOMS PAS GLING GE
SAR 'KHRUNGS PAR BSHAD,

1039 1) SA YOS, BSTOD PA DANG LAM RIM SOGS LTAR NA JO BO LHA
GCIG MNGA' RIS SU PHEBS,

1040 1) LCAGS 'BRUG  LAM YIG DPAR MA LTAR NA JO BO BAL PO NAS
BTEGS, RJE BTZUN MI LA DANG BA RI LO CHEN GNYIS 'KHRUNGS,

1041 1) LCAGS SBRUL, LAM YIG KHA CIG LTAR NA JO BO BAL POR
PHEBS, LAM YIG GZHAN LTAR NA SPU RANGS SU JO BO DANG 'BROM RIN
PO CHE MJAL,

1042 1) CHU RTA, KHA CIG JO BO MNGA' RIS SU PHEBS ZER, ZHANG SNA
NAM PA DRUG CU RE BDUN DANG, SNE'U ZUR PA 'KHRUNGS, DEB SNGON DU
RGYA 'DUL SLOB GNYER MDZAD ZER YANG MA 'KHRUNGS SO,

1043 1) CHU LUG  LO TZ'A BA GZHON NU SHES RAB BAM LVA BA DMAR PO
'DAS,

1044 1) SHING SPREL, JO BO SPU RANGS SU BZHUGS PAR 'BROM RIN PO
CHE MJAL BA KHO NA'O, RMA LO TZ'A BA 'KHRUNGS,

1045 1) SHING BYA, PA TSAB LO TZ'A BA NYI MA GRAGS PA 'KHRUNGS,

1046 1) ME KHYI, BSTOD PA DANG LAM RIM LTAR NA AA TI SHA SNYE
THANG DU PHEBS, 'BRING STON DANG SRAS ZLA GRAGS 'KHRUNGS, CHAG
KHRI MCHOG JO BO DANG MJAL,

1047 1) ME PHAG  JO BO RJE BSAM YAS DANG LO DE'I DGUN SNYE THANG
DU'ANG PHEBS, RGYA 'DUL 'DZIN 'KHRUNGS,

@3216

1048 1) SA BYI,

1049 1) SA GLANG, DGE BSHES MU TRA PA CHEN POS PO DONG AE'I DGON
PA BTAB,

1050 1) LCAGS STAG  'BROM RIN PO CHES JO BO LA 'BUL CHEN PHUL,
PHYAG DAR STON PAS JO BO LA MJAL,

1051 1) LCAGS YOS, JO BOS BSTAN RTZIS MDZAD PAR DUS 'KHOR tAK
CHEN LAS BSHAD,

1052 1) CHU 'BRUG  'DZING RDARMA BO DHI 'KHRUNGS,

1053 1) CHU SBRUL, SNUBS CHOS 'BAR 'KHRUNGS, (BRTAG)

1054 1) SHING RTA, JO BO CHEN PO DGA' LDAN DU GSHEGS, GLANG RI
THANG PA RDO RJE SENG GE 'KHRUNG,

1055 1) SHING LUG  LO CHEN RIN CHEN BZANG PO MKHA' SPYOD DU
GSHEGS, RMA SGOM CHOS KYI SHES RAB DANG, ZHANG STON CHOS 'BAR
GNYIS 'KHRUNGS,

1056 1) ME SPREL, TRE BO MCHOG GI BLA MA 'KHRUNGS, RVA SGRENG
BTAB PAR DEB SNGON LAS GSUNGS,

1057 1) ME BYA, DGE BSHES KARMA SHES RAB 'OD 'KHRUNGS, LO 'DIR
RVA SGRENG BTAB PAR GZHAN 'DOD PA 'DI LEGS,

1058 1) SA KHYI, PHYAG KHRI MCHOG GSHEGS,

1059 1) SA PHAG  RNGOG BLO LDAN SHES RAB, RNGOG SHES RAB RGYA
MTSO, DOL PO SHES RAB RGYAL MTSAN RNAMS 'KHRUNGS, KHA CIG GSANG
PHU BTAB ZER,

1060 1) LCAGS BYI, ZHANG SNA NAM RDO RJE DBANG PHYUG GSHEGS NAS
GDAN SA DGE BSHES GLAN TSUL KHRIMS BYANG CHUB KYIS BYAS, RMA BYA
RNA RA BA 'KHRUNGS,

1061 1) LCAGS GLANG,

1062 1) CHU STAG  SO DGE 'DUN 'BAR, SKOR NI RU PA, MA CIG ZHA
MA, SO CHUNG, NAM SNYING RNAMS 'KHRUNGS,

1063 1) CHU YOS, 'BROM STON GSHEGS PAR DGA' LDAN CHOS 'BYUNG LAS
BSHAD,

1064 1) SHING 'BRUG  'BROM STON LO 'DIR GSHEGS PAR DEB SNGON LAS
GSUNGS, KHA CHE ZLA BA MGON PO BOD DU BYON, KHA CIG GIS 'BROG MI
LO 'DIR 'DAS ZER,

1065 1) SHING SBRUL, 'BROM STON GSHEGS NAS GDAN SA RNAL 'BYOR PA
CHEN POS BYAS,

1066 1) ME RTA, RGYA GAR PHYAG NA BAL PO YE RANG DU BYON,

1067 1) ME LUG  RGYAL TSA BYANG YE DANG, SHA BO SGANG PA PAD MA
TSUL KHRIMS, GNYOS SKYE KHUNG PA, HAB JO SRAS 'JAM DPAL BCAS
'KHRUNGS,

@3217

1068 1) SA SPREL,

1069 1) SA BYA, ZHA MA'I MING PO 'KHON PHU BA CHOS KYI RGYAL PO
'KHRUNGS,

1070 1) LCAGS KHYI, DGE BSHES SHA RA BA YON TAN GRAGS 'KHRUNGS,

1071 1) LCAGS PHAG  LO RGYUS 'GA' ZHIG TU RNGOG LEGS PA'I SHES
RAB KYIS GSANG PHU NE'U THOG GI CHOS GRVA BTZUGS PAR BSHAD,

1072 1) CHU BYI,

1073 1) CHU GLANG, 'KHON DKON MCHOG RGYAL POS SA SKYA BTAB,
RNGOG LEGS PA'I SHES RAB KYIS GSANG PHU NE'U THOG BTAB,

1074 1) SHING STAG  'BROG MI LO TZ'A DANG, ZUR CHUNG BA GNYIS
GSHEGS, GSANG BDAG SGRO PHUG PA 'KHRUNGS,

1075 1) SHING YOS, KHU STON BRTZON 'GRUS GA-YUNG DRUNG GSHEGS,
KHU SHER BRTZON DANG, BYA YUL BA GZHON NU 'OD 'KHRUNGS, BYA 'DUL
'KHRUNGS PAR KHA CIG BZHED,

1076 1) ME 'BRUG  MNGA' BDAG RTZE SDE'I CHOS 'KHOR BYUNG, RNGOG
BLO LDAN SHES RAB KHA CHER PHEBS, ZANGS DKAR LO TZ'A BAS TSAD MA
RGYAN BSGYUR, RVA GNYAN SOGS 'DZOMS,

1077 1) ME SBRUL, BYA YUL BA'I SLOB MA GTZANG PA RIN PO CHE
DANG, RNGOG CHOS SKU RDO RJE 'KHRUNGS, (BRTAG) RJE MI LA MAR
PA'I DRUNG DU BYON,

1078 1) SA RTA, RNAL 'BYOR PA CHEN PO GSHEGS NAS GDAN SA 'DZENG,
DBANG PHYUG RGYAL MTSAN GYIS MDZAD,

1079 1) SA LUG  DVAGS PO LHA RJE 'KHRUNGS,

1080 1) LCAGS SPREL, RGYA 'DUL 'DZIN GYIS DGA' BA GDONG DU 'DUL
BAR SBYANGS,

1081 1) LCAGS BYA, GRA PA MNGON SHES KYIS GRA THANG GI RMANG
BTING,

1082 1) CHU KHYI, 'DZENG DGON PA BA GSHEGS NAS PO TO BA RVA
SGRENG GI GDAN SAR LO GCIG BZHUGS,

1083 1) CHU PHAG  RVA SGRENG LA GDAN SA PA MED PAS CHOS KYI MU
GE BYUNG ZER, MI LA MAR PA'I DRUNG NAS RANG YUL DU PHEBS,

1084 1) SHING BYI, SNE'U ZUR PA'I SLOB MA BYANG CHUB DGE MDZES
DANG, RAS CHUNG BA 'KHRUNGS, MI LAS BRAG DKAR RTA SOR SGRUB PA'I
DAM BCA' MDZAD,

@3218

1085 1) SHING GLANG, KHAMS PA LUNG PA SH'AKYA YON TAN 'KHRUNGS,
(BRTAG) SHA MI DGON PA SMON LAM 'BAR 'KHRUNGS,

1086 1) ME STAG  MI LAS GRUB RTAGS KYI THOG MA BSTAN, KHA CIG
GIS GTUM STON BLO GROS GRAGS PA 'KHRUNGS ZER,

1087 1) RAB BYUNG GNYIS PA, ME YOS,

1088 2) SA 'BRUG  RGYA MA BA SANGS RGYAS DBON STON 'KHRUNGS,

1089 2) SA SBRUL, RMA LO TZ'A BA DGE BA'I BLO GROS DUG SKYON
GYIS GSHEGS,

1090 2) LCAGS RTA, DGE BSHES TSUL 'PHAGS NGAN LAM PA 'KHRUNGS,
GRA PA MNGON SHES GSHEGS, DGYER SGOM CHEN PO DANG, RNGOG MDO SDE
'KHRUNGS,

1091 2) LCAGS LUG  BYA 'DUL 'DZIN 'KHRUNGS, LO RGYUS 'GA' ZHIG
TU PHA DAM PA SANGS RGYAS DING RIR PHEBS PAR BSHAD,

1092 2) CHU SPREL, SA CHEN KUN DGA' SNYING PO 'KHRUNGS, PHA DAM
PA LAN GNYIS PAR BOD DU BYON, RNGOG BLO LDAN SHES RAB BOD DU
'KHOR,

1093 2) CHU BYA, SPYAN SNGA TSUL KHRIMS 'BAR GYIS LO YI LHA
KHANG BZHENGS PA'I 'GO BTZUGS, LO BCU 'GOR, GLANG RI THANG PAS
GLANG THANG DGON BTAB,

1094 2) SHING KHYI, GRUB THOB NYI PHUG PA DANG LCE STON RGYA NAG
PA 'KHRUNGS, RAS CHUNG PAS MI LA BSTEN,

1095 2) SHING PHAG  'BRUG PA CHOS 'BYUNG LAS RNGOG CHOS SKU RDO
RJE LO 'DIR 'DAS PAR BSHAD,

1096 2) ME BYI, ZHVA DMAR BA TSUL KHRIMS DPAL 'KHRUNGS, (BRTAG)
1097 2) ME GLANG, ZHANG BKRA SHIS RDO RJE 'KHRUNGS, MAR PA LO
TZ'A BA GSHEGS,

1098 2) SA STAG

1099 2) SA YOS, TSUL KHRIMS RIN CHEN 'KHRUNGS, MA CIG LAB SGRON
'KHRUNGS ZER, (BRTAG) NYUG RUM PA CHEN PO 'DAS, CHA PA CHOS KYI
SENG GE 'KHRUNGS,

1100 2) LCAGS 'BRUG  KHROM GZHER RIN CHEN SENG GE 'KHRUNGS,

1101 2) LCAGS SBRUL, BYA 'CHAD KHA PA 'KHRUNGS, PHA DAM PA SANGS
RGYAS RGYA YUL DU PHEBS,

1102 2) CHU RTA, GLAN TSUL BYANG GSHEGS NAS RGYAL LHA KHANG GI
GDAN SA 'BRING STON GYIS BYAS, 'KHON DKON MCHOG RGYAL PO GSHEGS,
BA RI LO CHEN GYIS SA SKYA'I KHRI MDZAD, RNGOG CHOS SKU RDO RJE
GSHEGS, KHA CIG MA CIG LAB SGRON 'KHRUNGS ZER, (BRTAG) LO'I LHA
KHANG GRUB,

@3219

1103 2) CHU LUG  RGYAL BA KHYUNG TSANG THOD DMAR BA, STABS KA
PA, DVAGS PO'I SLOB MA GROL SGOM CHOS GA-YUNG GSUM 'KHRUNGS,
RNAM THAR DRI MED SHEL PHRENG DU CHU LUG LOR 'KHRUNGS PAR BSHAD
PA 'DI LEGS, SPYAN SNGA BA GSHEGS, 'GROG MIS MANG MKHAR MYU GU
LUNG GI DGON PA BTAB, MA CIG LAB SGRON 'KHRUNG,

1104 2) SHING SPREL,

1105 2) SHING BYA, PO TO BA GSHEGS,

1106 2) ME KHYI, PHU CHUNG BA GSHEGS, GTUM STON BLO GROS GRAGS
PA DANG TSUL KHRIMS DPAL 'KHRUNGS, DGE BSHES DOL PAS BE'U BUM
SNGON PO BRTZAMS,

1107 2) ME PHAG  STENG PA LO TZ'A BA TSUL KHRMIS 'BYUNG GNAS
'KHRUNGS,

1108 2) SA BYI,

1109 2) SA GLANG, RNGOG LO TZ'A BA BLO LDAN SHES RAB GSHEGS, CHA
PA CHOS KYI SENG GE 'KHRUNGS, DVAGS PO LHA RJE MI LA'I DRUNG DU
BYON, RNGOG LO 'DAS NAS RVA LO TZ'A BA LO NYI SHSU TZAM BZHUGS
ZHES 'JIGS BYED CHOS 'BYUNG CHEN POR GSAL,

1110 2) LCAGS STAG  BDE GSHEGS PHAG MO GRU PA DANG, KARMA DUS
GSUM MKHYEN PA GNYIS 'KHRUNGS, DVAGS PO MI LA'I DRUNG NAS DBUS
SU BYON,

1111 2) LCAGS YOS, KUN SNYING GIS SA SKYA'I GDAN SA BSKYANGS,
SMYOS PA CHOS 'BAR GYIS GNYAL GRA SKOR DGON PA BTAB, DGE BSHES
BRAG DKAR BAS DPE CHOS RIN SPUNGS RTZA 'GREL BRTZAMS, BA RI LO
TZ'A BA GSHEGS,

1112 2) CHU 'BRUG  DVAGS POS 'OL KHAR SGRUB PA MDZAD, SMYOS PA
CHOS 'BAR 'DAS,

1113 2) CHU SBRUL, BYA YUL GYI DGON PA BTAB, PHA DAM PA BOD DU
BYON PA'I RJES MA'O,

1114 2) SHING RTA, LAB SGRON GYIS DGE BSHES AA STON LAS GSAN
SBYONG MDZAD, (BRTAG)

1115 2) SHING LUG  RNGOG JO TSUL KHRIMS SHES RAB DANG KHYUNG
TSANG BA GNYIS 'KHRUNGS, KHAMS LUNG PA 'DAS, CIN RGYAL RABS 'GO
TSUGS,

1116 2) ME SPREL, STOD LUNG PA CHEN PO GSHEGS, RGYAL BA YE GRAGS
SA DMAR BA, DVAGS PO SGOM TSUL, SE STON KUN RIG RNAMS 'KHRUNGS,
(BRTAG)

1117 2) ME BYA, ZHI BYED PA SGRO'I BLA MA 'CHUS PA DAR BRTZON
'KHRUNGS, RNYING MA ZHANG STON GYIS MCHIMS PHU DANG, RJE BTZUN
SENG GE DBANG PHYUG GIS 'U YUG DANG JA LA PHU NAS GTER BTON,
'GA' ZHIG PHA DAM PA SANGS RGYAS 'DAS ZER,

1118 2) SA KHYI, SNE'U ZUR PA GSHEGS, KHRO PHU RGYAL TSA
'KHRUNGS, DVAGS PO LHA RJE 'O DE GUNG RGYAL DU BYON,

@3220

1119 2) SA PHAG  'BRING STON GSHEGS, DGE BSHES DGYER SGOM PAS
RGYA MA RIN CHEN SGANG GI LHA KHANG BZHENGS, SKAM YE SHES RGYAL
MTSAN 'DAS,

1120 2) LCAGS BYI, RGYAL GYI GDAN SAR RMA BYA RNA RA BA PHEBS,
RNGOG MDO SDE'I SRAS THOGS MED GRAGS PA 'KHRUNGS,

1121 2) LCAGS GLANG, SE SPYIL BU PA 'KHRUNGS, DVAGS PO RIN PO
CHES SGAM PO ZHABS KYIS BCAG STE DGON PA BTAB, BLA MA ZHANG
BRTZON 'GRUS GRAGS PA 'KHRUNGS, SKOR CHUNG BA 'DAS PA'I LUS LA
NI RU PAS GRONG 'JUG BYAS,

1122 2) CHU STAG  RNGOG JO 'OD BTZAS, MKHAS GRUB KHYUNG PO RNAL
'BYOR GYIS SHANGS ZHONG SHONG SOGS DGON BRGYA RTZA BRGYAD BTAB,
KA DAM PA BDE GSHEGS 'KHRUNGS,

1123 2) CHU YOS, LHA RJE ZLA BA'I 'OD ZER DANG, RGYAL SRAS GLANG
LUNG PA 'KHRUNGS, DGE BSHES GLANG THANG PA DANG, MI LA RAS PA
'DAS, MI LA'I RNAM THAR DU SHING YOS LA 'DAS ZHES GSAL BAS DPYAD
DGOS, 'GA' ZHIG GIS BLA MA ZHANG LO 'DIR 'KHRUNGS PAR BSHAD,

1124 2) SHING 'BRUG  NYANG RAL NYI MA 'OD ZER 'KHRUNGS, RNYING
MA RTA STON JO BO YE SHES DANG, JO BSHOD KYI YAB JO 'BUM
'KHRUNGS, ZHI BYED PA KUN DGA' 'DAS,

1125 2) SHING SBRUL, SLOB DPON AA BHYA KA RA 'DAS,

1126 2) ME RTA, MA CIG LAB SGRON GYI SRAS RGYAL BA DON GRUB
DANG, MAL KA BA CAN 'KHRUNGS, (BRTAG)

1127 2) ME LUG  KHA CHE PAn CHEN SH'AKYA SHR'I 'KHRUNGS, SUNG
RGYAL RABS KYI SUNG LHO MA'I RGYAL RABS 'GO TSUGS, 'OD 'JO GZHON
NU YON TAN DANG, RGYAL BA RTEN NE 'KHRUNGS,

1128 2) SA SPREL, DGE BSHES GLAN DANG, GLING RAS PA BTZAS, KARMA
PA DUS GSUM MKHYEN PA KHAMS NAS DBUS SU PHEBS, SO CHUNG DGE 'DUN
'BAR 'DAS, 'GA' ZHIG LO 'DIR RVA LO 'DAS PAR 'DOD,

1129 2) SA BYA, RNGOG JO BSOD DANG, THOGS MED PA BSAM 'GRUB, KAM
KAM PA DGE BSHES SKYO STON, SBAL TI DGRA BCOM RNAMS 'KHRUNGS,
RMA BYA RNA RA BA 'DAS,

1130 2) LCAGS KHYI, RGYAL TSA BYANG YE RGYAL LHA KHANG GI GDAN
SAR 'KHOD, DVAGS PO SGOM PA SHES RAB BYANG CHUB 'KHRUNGS, SNUBS
CHOS 'BAR 'DAS,

1131 2) LCAGS PHAG  DGE BSHES SHA BO SGANG PA, RGYA 'DUL 'DZIN,
DGE BSHES DOL PA, YA GAD PA RNAMS 'DAS, PHAG MO GRU PA MDO SMAD
NAS DBUS SU BYON,

@3221

1132 2) CHU BYI, ZHVA DMAR BA TSUL KHRIMS DPAL 'DAS, SA SKYA PA
BSOD NAMS RTZE MO 'KHRUNGS PAR 'DOD PA'ANG YOD,

1133 2) CHU GLANG, RNGOG STON CHUNG DBANG MO DANG, ZHVA DMAR BA
NAM MKHA' 'OD GNYIS 'KHRUNGS,

1134 2) SHING STAG  'GRO MGON SANGS RGYAS YE SHES 'KHRUNGS,
GSANG BDAG SGRO PHUG PA DANG, ZHANG STON CHOS 'BAR GSHEGS, SGAM
PO BA MKHAN PO 'DUL 'DZIN 'KHRUNGS,

1135 2) SHING YOS, RNGOG JO BDE 'KHRUNGS, SGOM PA TSUL KHRIMS
SNYING PO BSNYEN PAR RDZOGS,

1136 2) ME 'BRUG

1137 2) ME SBRUL, KHROM GZHER 'OD ZER SENG GE CHEN POS KAM KAM
GYI GTZUG LAG KHANG BTAB,

1138 2) SA RTA, BYA YUL BA GZHON NU 'OD GSHEGS, RGYA MA DBON
STON GZHON NU 'BYUNG GNAS DANG RNGOG BKRA SHIS GRAGS PA
'KHRUNGS,

1139 2) SA LUG  RGYAL TSA BYANG YE GSHEGS, DUS GSUM MKHYEN PA
SGAM PO DANG MJAL, MKHAS GRUB KHYUNG PO RNAL 'BYOR 'DAS ZER
BA'ANG 'DUG

1140 2) LCAGS SPREL, 'BRING STON RGYAL GYI GDAN SAR PHEBS, BUD
DHA SHR'I 'KHRUNGS,

1141 2) LCAGS BYA, SHA RA BA YON TAN GRAGS GSHEGS,

1142 2) CHU KHYI, BSOD NAMS RTZE MO 'KHRUNGS PAR DEB SNGON LAS
BSHAD, STAG LUNG THANG PA BKRA SHIS DPAL BA 'KHRUNGS,

1143 2) CHU PHAG  'BRING STON GSHEGS NAS SHING BYI NAS CHU SPREL
BAR DMAR CHEN PO DBYAR THOG GCIG BZHUGS PA MA GTOGS LO DGUR
RGYAL GYI GDAN SA STONGS, KHU SHER BRTZON GSHEGS, 'BRI GUNG
SKYOB PA 'JIG RTEN MGON PO DANG, RTOGS LDAN NAM MKHA' 'OD GNYIS
'KHRUNGS,

1144 2) SHING BYI, 'KHON PHU BA GSHEGS, GYER SGOM TSUL KHRIMS
SENG GE DANG, SPYI BO LHAS PA BTZAS, ZHIG PO BDUD RTZI 'KHRUNGS,

1145 2) SHING GLANG, RNGOG JO BSOD, RNGOG STON CHUNG DBANG MO,
RNGOG JO BDE RNAMS 'DAS,

1146 2) ME STAG  RNGOG JO 'OD GSHEGS, RNGOG THOGS MED GRAGS KYI
SRAS RGYAL TSAR MO 'KHRUNGS,

1147 RAB BYUNG GSUM PA, SA SKYA'I RJE BTZUN GRAGS PA RGYAL MTSAN
DANG, ZHANG GI SLOB MA MNYAM MED SH'AKYA YE SHES 'KHRUNGS,

1148 3) SA 'BRUG  KUN LDAN RAS PA 'KHRUNGS, LCE STON RGYA NAG PA
'DAS,

1149 3) SA SBRUL, ZHIG PO BDUD RTZI 'KHRUNGS, (BRTAG) MA CIG ZHA
MA GSHEGS, KHA CHE PAn CHEN RAB TU BYUNG BAR DEB SNGON LAS
BSHAD,

@3222

1150 3) LCAGS RTA, DPAL CHEN 'OD PO 'KHRUNGS, DVAGS PO SGOM TSUL
GDAN SAR PHEBS, RNGOG SHES RAB BLA MA 'KHRUNGS, ZHANG 'OD 'JO
GSHEGS,

1151 3) LCAGS LUG  PHAG MO GRU PA DVAGS PO RIN PO CHE DANG MJAL,

1152 3) CHU SPREL, RNGOG RDO RJE SENG GE 'KHRUNGS, SGRO CHOS KYI
BRTZON 'GRUS 'DAS,

1153 3) CHU BYA, DGE BSHES TSUL 'PHAGS NGAN LAM PA RGYAL GYI
GDAN SAR BYON, GTUM STON GYIS SNAR THANG BTAB, DVAGS PO RIN PO
CHE GSHEGS, CHAG DGRA BCOM DANG DPAL LDAN GRO MO CHE 'KHRUNGS,
DAR MA DBANG PHYUG GIS 'BA' ROM DGON PA BTAB,

1154 3) SHING KHYI, MKHAN CHEN RDO RJE TSUL KHRIMS 'KHRUNGS,
DVAGS SGOM TSUL KHRIMS SNYING POS STOD LUNG MTSUR DU LHA LUNG GI
DGON PA BTAB, (BRTAG)

1155 3) SHING PHAG  MTSUR LHA LUNG GI GZHI BTING,

1156 3) ME BYI, RNGOG THOGS MED GRAGS PA GSHEGS,

1157 3) ME GLANG, RNGOG KUN DGA' RDO RJE 'KHRUNGS, PHAG MO GRU
PA PHA DAM PAR MJAL ZER YANG LO RGYUS PHAL CHE BAR PHA DAM PA
RAB BYUNG GNYIS PA'I ME BYAR 'DAS PAR BSHAD PAS BRTAG DGOS,

1158 3) SA STAG  SA CHEN KUN SNYING DANG, RNGOG JO TSUL GSHEGS,
PHAG MO GRU PAS GDAN SA MTHIL BTAB, NYI 'BUM DANG, LHA LUNG GI
DBANG PHYUG GNYIS 'KHRUNGS,

1159 3) SA YOS, DGE BSHES TSUL 'PHAGS NGAN LAM PA GSHEGS NAS LO
BZHIR RGYAL GYI GDAN SA STONGS, DUS MKHYEN GYIS MTSUR PHU ZHABS
KYIS BCAG  RJE BTZUN GRAGS PA RGYAL MTSAN SA SKYA'I GDAN SAR
'KHOD, DAM PA BDE GSHEGS KYIS KHAMS KA: THOG DGON PA BTAB,

1160 3) LCAGS 'BRUG  DGE BSHES LCAGS RI BA, YANG DBEN PA, SANGS
RGYAS SGOM RDOR GZHON PA RNAMS 'KHRUNGS, DVAGS PO SGOM TSUL GYIS
LHA SAR ZHIG GSO MDZAD,

1161 3) LCAGS SBRUL, BYA YUL BA'I SLOB MA GTZANG PA RIN CHEN NAM
MKHA' RDO RJE DANG, RAS CHUNG PA GNYIS GSHEGS, GTZANG PA RGYA
RAS 'KHRUNGS,

1162 3) CHU RTA, PAn CHEN SH'AKYA SHR'I RAB TU BYUNG ZHES KHA
CIG ZER, HOR JING GIR RGYAL PO BTZAS, NI RU PA 'DAS,

1163 3) CHU LUG  KAM KAM JO SRAS KHROM GZHER RIN CHEN SENG GE
DANG, RTA STON JO BO YE SHES 'KHRUNGS,

@3223

1164 3) SHING SPREL, GNYOS RGYAL BA LHA NANG PA 'KHRUNGS, RGYAL
BA KHYUNG TSANG THOD DMAR BA RGYAL GYI GDAN SAR PHEBS, DUS
MKHYEN GYIS KHAMS SU KAM PO GNAS GANG BTAB, HAB JO SRAS 'DAS,

1165 3) SHING BYA, MAL DROR 'CHAD KA'I DGON PA BTAB, STAG LUNG
THANG PA DANG, GLANG RAS PA GNYIS KYIS PHAG MO GRU PA BSTEN,

1166 3) ME KHYI, GTUM STON BLO GROS GRAGS PA DANG, RNGOG MDO SDE
GNYIS GSHEGS, ROG BKRA SHIS GRAGS PA'I BU ROG SHES RAB 'OD
BTZAS,

1167 3) ME PHAG  ZHANG BKRA SHIS RDO RJE DANG, BYANG CHUB DGE
MDZES GNYIS GSHEGS, 'BRI GUNG SKYOB PAS PHAG GRU MJAL,

1168 3) SA BYI, 'DZING DARMA BO DHI GSHEGS, RTA STON JO BO YE
SHES KYI GCUNG DBUS PA JO BSOD 'KHRUNGS,

1169 3) SA GLANG, CHA PA CHOS SENG DANG, DVAGS PO SGOM TSUL
GNYIS GSHEGS, GA-YA' BZANG CHOS RJE CHOS SMON LAM 'KHRUNGS, PAn
CHEN SH'AKYA SHR'I BSNYEN PAR RDZOGS, DUS MKHYEN GYIS 'DON SPANG
PHUG BTAB, SBAL TI DGRA BCOM PAS SKYOR MO LUNG BTAB,

1170 3) LCAGS STAG  BDE GSHEGS PHAG GRU GSHEGS, BLA MA ZHANG GIS
BSNGO BA TZAM BYAS KYANG PHAG GRUR GDAN SA PA MED, KAM KAM KHROM
GZHER GSHEGS, SPOM BRAG PA BSOD NAMS RDO RJE DANG, KO BRAG PA
GNYIS 'KHRUNGS,

1171 3) LCAGS YOS, PHAG GRUR GDAN SA PA MED, YOL PHUNG BTAB,
GYER SGOM 'DAS, SHA SMI SMON LAM 'BAR 'DAS, ROG SHER 'OD KYI
GCUNG ZHIG PO RIN CHEN SHES RAB 'KHRUNGS,

1172 3) CHU 'BRUG  KHA CIG KHRO PHU LO TZ'A 'KHRUNGS ZER,

1173 3) CHU SBRUL, KHRO PHU LO TZ'A BA BYAMS PA DPAL 'KHRUNGS,
DVAGS PO SGOM CHUNG SHES RAB BYANG CHUB GSHEGS, ROG SHES RAB BLA
MA 'DAS,

1174 3) SHING RTA, STABS KA BA GSHEGS, RNYING MA BA JO 'BUM
'DAS,

1175 3) SHING LUG  BYA 'CHAD KA PA DANG, KHAMS LUNG PA GNYIS
GSHEGS, DUS MKHYEN GYI SLOB MA CHOS RJE SGANG PA 'KHRUNGS, BLA
MA ZHANG GIS TSAL GYI DGON PA BTAB, RGYAL BA KHYUNG TSANG THOD
DMAR GSHEGS NAS LO GSUM RGYAL GYI GDAN SA MED, SPYAN SNGA GRAGS
PA 'BYUNG GNAS 'KHRUNGS,

@3224

1176 3) ME SPREL, KHYUNG TSANG BA YE SHES BLA MA GSHEGS, KHAMS
PA DBU SE'I SLOB MA CHOS RJE SGANG PA 'KHRUNGS,

1177 3) ME BYA, ZHANG LO TZ'A BA GRUB PA DPAL DANG, DVAGS PO'I
SLOB MA RNAL 'BYOR PA CHOS GA-YUNG GSHEGS, 'BRI GUNG SKYOB PA
PHAG GRU'I GDAN SAR PHEBS, 'BRUG DBON RAS DHARMA SENG GE
'KHRUNGS,

1178 3) SA KHYI, KHA CIG LO 'DIR STAG LUNG BTAB PAR 'DOD,

1179 3) SA PHAG  RGYAL BA YE GRAGS SA DMAR BA RGYAL LHA KHANG GI
GDAN SAR PHEBS, SKYOB PAS 'BRI GUNG MTHIL BTAB, SNAR THANG PA
SANGS RGYAS SGOM PA 'KHRUNGS,

1180 3) LCAGS BYI, 'GAR DAM PA CHOS SDINGS PA 'KHRUNGS, PHAG
GRU'I SLOB MA BKRA SHIS DPAL GYIS STAG LUNG BTAB, CHOS 'BYUNG
MKHAS PA'I DGA' STON DU, 'DI LO SKYOB PA 'JIG RTEN MGON PO 'BRI
GUNG DU PHEBS PAR BSHAD,

1181 3) LCAGS GLANG, KHA CIG STAG LUNG BTAB ZER,

1182 3) CHU STAG  SA CHEN BSOD NAMS RTZE MO DANG, MING PO'I SRAS
ZLA 'OD, RNGOG RGYAL TSAR MO RNAMS GSHEGS, SA SKYA PAN CHEN
DANG, KO BRAG PA BSOD NAMS RGYAL MTSAN GNYIS 'KHRUNGS, SANGS
RGYAS DBON STON GYIS RGYA MA RIN CHEN SGANG BTAB,

1183 3) CHU YOS,

1184 3) SHING 'BRUG  ZANGS TSA BSOD NAMS RGYAL MTSAN 'KHRUNGS,
LAB SGRON GYIS HOR ZLA GSUM PA'I TSES BCUR GA-YA' RI'I GTER
BTON, LAB SGRON CHU RTAR 'KHRUNGS PA'I GYA GSUM DANG, YOS LOR
'KHRUNGS PA'I GYA DRUG GO,

1185 3) SHING SBRUL, DUS MKHYEN GYIS KARMA LHA STENG BTAB, LAB
SGRON CHU LUG LA 'KHRUNGS PA'I GYA GSUM PA'O,

1186 3) ME RTA, LHA 'GRO BA'I MGON PO, KHA RAG GRAGS RGYAL, SNYE
MDO SMRA BA'I SENG GE RNAMS 'KHRUNGS, ROG BKRA SHIS GRAGS PA
'DAS,

1187 3) ME LUG  RGYAL BA YE GRAGS SA DMAR BA GSHEGS, LO GCIG
RGYAL GYI GDAN SA STONGS, DBON RIN PO CHE DANG, KAM KAM ZHIG PO
'DUL GRA PA RIN CHEN 'BYUNG GNAS, RGYAL BA LO RAS PA DBANG PHYUG
BRTZON 'GRUS RNAMS 'KHRUNGS, ZHANG GIS GUNG THANG BTAB NAS LHA
CHEN BZHENGS, DBON SHES RAB 'BYUNG GNAS BTZAS,

@3225

1188 3) SA SPREL, GLING RAS PAD MA RDO RJE GSHEGS, BYANG RTA
SNA'I DGON PA BTAB, GTZANG PA RGYA RAS KYIS RO SNYOMS SKOR DRUG
GI GTER BTON,

1189 3) SA BYA, DGE BSHES GLAN RGYAL GYI GDAN SAR PHEBS, SE
SPYIL BU PA GSHEGS, BSAM GLING PA 'KHRUNGS, KARMA DUS MKHYEN
GYIS MTSUR PHU BTAB, HOR JING GIR RGYAL POS SOG PO'I RGYAL PO
BYAS,

1190 3) LCAGS KHYI, STENG PA LO TZ'A BA TSUL KHRIMS 'BYUNG GNAS
GSHEGS, MNGA' RIS YA TSE RGYAL POS JO BOR GSER THOG PHUB, HOR
JING GIR RGYAL POS MAN JU MNGA' 'OG TU BSDUS,

1191 3) LCAGS PHAG  DGE GSHES GLAN GSHEGS NAS DGE BSHES DRI 'DUL
GYIS RGYAL LHA KHANG GI GDAN SA LO GCIG MDZAD, BYA YUL BA ZOM
RIN PO CHE DANG SKU YAL BA RIN CHEN MGON PO 'KHRUNGS,

1192 3) CHU BYI, SMRA BAS SMRA DGON PA BTAB, HOR JING GIR RGYAL
POS SO LON MNGA' 'OG TU BSDUS, 'CHUS PA DAR MA BRTZON 'GRUS
DANG, KA DAM PA BDE GSHEGS 'DAS, NYANG RAL NYI MA 'OD ZER 'DAS,

1193 3) CHU GLANG, KAM KAM PA DGE BSHES SKYO STON RGYAL GYI GDAN
SAR PHEBS, RIN PO CHE GLANG LUNG PA, BLA MA ZHANG, KARMA DUS
GSUM MKHYEN PA RNAMS GSHEGS, 'GRO MGON GTZANG PA RGYA RAS PAS
'BRUG RA LUNG GI DGON PA BTAB,

1194 3) SHING STAG  BLA MA ZHANG GI GDAN SAR MNYAM MED SH'AKYA
YE SHES PHEBS, DPAL LDAN GRO MO CHE SNAR THANG GI GDAN SAR
'KHOD, HOR JING GIR RGYAL POS RGYA NAG DBANG DU BSDUS ZER,

1195 3) SHING YOS, KHRO PHU RGYAL TSA DANG RNYING MA BA YON TAN
GZUNG GSHEGS, KHRO PHU LO TZ'A BA BAL POR BYON, HOR JING GIR
RGYAL POS RGYA SER MNGA' 'OG TU BSDUS,

1196 3) ME 'BRUG  ZHANG NYI 'BUM GYI SRAS JO 'BER 'KHRUNGS,
NYANG STOD 'JAM DBYANGS MGON PO DANG, DON YOD RDO RJE GNYIS
'KHRUNGS, CHOS 'BYUNG YID KYI MDZES RGYAN DU KARMA DUS MKHYEN
'DAS PAR BSHAD, HOR JING GIR RGYAL POS DAN MAG PA DBANG DU
BSDUS,

1197 3) ME SBRUL, KHRO LO MI TRA GDAN 'DREN DU BYON,

1198 3) SA RTA, 'BRI GUNG CHOS RJE DANG, STAG LUNG CHOS RJE
GNYIS KYIS PHAG GRU'I GDAN SAR GTZUG LAG KHANG CHEN PO BZHENGS,
MI TRA BOD DU PHEBS NAS KHRO PHUR ZLA BA

@3226

DRUG TZAM BZHUGS, DBUS PA JO BSOD 'DAS, HOR JING GIR RGYAL POS
KHA ROD PA BLANGS,

1199 3) SA LUG  ZHIG PO BDUD RTZI, GROL SGOM CHOS GA-YUNG, ZHVA
DMAR NAM MKHA' 'OD RNAMS 'DAS, MI TRA JO KI RGYA GAR DU PHYIR
PHEBS,

1200 3) LCAGS SPREL, KAM KAM DGE BSHES SKYO STON 'DAS, DGE BSHES
RGYA LCAGS RI PA RGYAL GYI GDAN SAR PHEBS, ZHVA DMAR BKRA SHIS
GRAGS PA, 'BRUG PA GZHON NU SENG GE, SGAM PO SNYI SGOM CHEN
RNAMS 'KHRUNGS, KHRO PHU LO TZ'A BAS BUD DHA SHR'I BOD DU GDAN
DRANGS, KHA CIG MA CIG LAB SGRON 'DAS ZER, HOR JING GIR GYIS MAN
PA TA GE BLANGS,

1201 3) LCAGS BYA, MA CIG LAB SGRON CHU LUG LOR 'KHRUNGS PA'I GO
DGU PA LO 'DIR GSHEGS PAR BSHAD PA LEGS,

1202 3) CHU KHYI, RNGOG GZI BRJID GRAGS PA DANG, SPYAN SNGA RIN
CHEN LDAN GNYIS 'KHRUNGS,

1203 3) CHU PHAG  DPAL CHEN 'OD PO GSHEGS, RGYAL BA RIN CHEN
THOG RDUGS PA, SANGS RGYAS YAR BYON, RONG PA RGA LO RNAMS
'KHRUNGS,

1204 3) SHING BYI, KARMA PAKSHI 'KHRUNGS, KHA CHE PAn CHEN BOD
DU BYON, HOR JING GIR GYIS HOR LIG DBANG DU BSDUS,

1205 3) SHING GLANG, RNGOG RGYAL PO DGA' 'KHRUNGS, RGYA 'CHING
RU BAS SNYE THANG BDE BA CAN BTAB, (RA BA STOD DGON PA) 'GA'
ZHIG CHOS RJE GTZANG PA RGYA RAS YE SHES RDO RJES 'BRUG DGON PA
BTAB PAR 'DOD,

1206 3) ME STAG  GA-YA' BZANG PA CHOS KYI SMON LAM GYIS GA-YA'
BZANG BTAB, KHA CIG KARMA PAKSHI 'KHRUNGS ZER, HOR JING GIR BOD
DU YONG NAS MI NYAG PHUD GZHAN KUN BLANGS, 'GA' ZHIG GIS HOR
JING GIR RGYAL PO RGYAL SAR 'KHOD ZER,

1207 RAB BYUNG BZHI PA, ME YOS, ZA RA BA YE SHES SENG GE DANG,
ZHANG GI GDAN SA BA MNYAM MED SH'AKYA YE SHES GSHEGS, KHA CHE
PAn CHEN GYIS THANG PO CHER BSTAN RTZIS MDZAD, SANGS RGYAS 'DAS
NAS LO STONG DANG BDUN BRGYA LNGA BCU SONG, HOR JING GIR RGYAL
POS PAR THA GA CHIN BLANGS ZER,

1208 4) SA 'BRUG  PAn CHEN SH'AKYA SHR'I RVA SGRENG SOGS SU
BYON, SPYAN SNGA GRAGS 'BYUNG PHAG GRU'I GDAN SAR PHEBS, LO RAS
KYI SLOB MA 'JAM DBYANGS MGON PO 'KHRUNGS, SLOB DPON BYANG CHUB
YE SHES ZHANG GI GDAN SAR PHEBS, KHA CHE PAn CHEN GYI DRUNG DU
SA PAn BSNYEN RDZOGS MDZAD,

@3227

1209 4) SA SBRUL, KHA CHE PAn CHEN GYIS RIN CHEN SGANG DU DBYAR
GNAS MDZAD,

1210 4) LCAGS RTA, RGYA MA DBON STON GSHEGS, KHA CHE PAn CHEN
GYIS SA SKYAR DBYAR GNAS MDZAD, STAG LUNG THANG PA DANG SANGS
RGYAS SGOM PA GNYIS GSHEGS, SKU YAL BA RIN CHEN MGON GYIS STAG
LUNG GI GDAN SA MDZAD, LHA PHYUG MKHAR PA ZHANG GI GDAN SAR
PHEBS,

1211 4) LCAGS LUG  BCUNG DE MO RDO RJE GRAGS 'KHRUNGS, 'GRO MGON
GTZANG PA RGYA RAS DANG, MAL KA BA GSHEGS,

1212 4) CHU SPREL, GTER STON GU RU CHOS KYI DBANG PHYUG
'KHRUNGS, KHA CHE PAn CHEN GYIS KHRO PHU'I BYAMS CHEN LA RAB
GNAS DANG DBYAR GNAS MDZAD,

1213 4) CHU BYA, RNYING MA'I SLOB DPON NYI 'BUM GSHEGS, RGYAL BA
YANG DGON PA 'KHRUNGS, DEB SNGON DU KHA CHE PAn CHEN GYIS SPU
HRENG DU DBYAR GNAS MDZAD NAS RGYA GAR DU PHYIR PHEBS PAR BSHAD,

1214 4) SHING KHYI, KAM KAM PA BSOD NAMS RIN CHEN 'KHRUNGS,
SANGS RGYAS 'BUM PA ZHANG GI GDAN SAR PHEBS, KHA CHE PAn CHEN
KHA CHER BYON, KUN MKHYEN CHOS SKU 'OD ZER 'KHRUNGS,

1215 4) SHING PHAG  SE CHEN RGYAL PO 'KHRUNGS, SBAL TI DGRA BCOM
DANG, SPRUL SKU SANGS RGYAS 'BUM 'DAS,

1216 4) ME BYI, RJE BTZUN GRAGS PA RGYAL MTSAN GYIS BSTAN RTZIS
MDZAD DE GSHEGS, CHAG DGRA BCOM PA 'DAS,

1217 4) ME GLANG, YANG DGON PA, 'BRI GUNG 'JIG RTEN MGON PO,
RGYAL BA RTEN NE, KUN LDAN RAS PA RNAMS GSHEGS, SNYE MDO THAMS
CAD MKHYEN PA 'KHRUNGS, MKHAN PO RDO RJE TSUL KHRIMS 'BRI GUNG
GI GDAN SAR PHEBS,

1218 4) SA STAG  DGE BSHES RGYA LCAGS RI BA DANG, DVAGS PO MKHAN
PO 'DUL 'DZIN GNYIS GSHEGS, GCUNG BCU GNYIS PA RIN CHEN RDO RJE
'KHRUNGS,

1219 4) SA YOS, GLANG STON SHER SENG GIS RGYAL GYI GDAN SA LO
DRUG MDZAD, RNGOG RDO RJE SENG GE GSHEGS, HOR JING GIR RGYAL PO
RGYAL SAR 'KHOD NAS KRUNG YA SHIS YAR RGYANG BSKYOD BYAS ZHES
MTSO SNGON LO RGYUS SU GSAL,

1220 4) LCAGS 'BRUG  KAM KAM KHROM GZHER JO SRAS RIN CHEN SENG
GE GSHEGS, KHAMS PA LUNG PA 'KHRUNGS,

@3228

1221 4) LCAGS SBRUL, 'BRI GUNG MKHAN PO RDO RJE TSUL KHRIMS
GSHEGS, TSAL PAS HOR YUL DU DKON MCHOG GI CHE BA BTON, 'DI NI
GTZANG PA DUNG KHUR PA DBANG PHYUG BKRA SHIS YIN, BOD KYI SANGS
RGYAS CHOS LUGS PA'I BLA MA DANG HOR GONG MA 'BREL BA BYUNG BA'I
THOG MA YIN,

1222 4) CHU RTA, DBON RIN PO CHE SHES RAB 'BYUNG GNAS 'BRI GUNG
GI GDAN SAR PHEBS, HOR YUL DU DAM PA'I CHOS DAR 'GO TSUGS, HOR
JING GIR RGYAL POS PAR THA GA CHEN BLANGS ZHES KYANG ZER SROL
'DUG

1223 4) CHU LUG  'KHRUL ZHIG DHARMA SENG GE DANG, CHOS SGO BA
RDO RJE YE SHES, TSAL GSER KHANG THANG STENG PA KUN DGA' RGYAL
MTSAN BCAS 'KHRUNGS,

1224 4) SHING SPREL, SBAS PA STON GZHON 'KHRUNGS, GNYOS RGYAL BA
LHA NANG PA GSHEGS, SKU YAL BA RIN CHEN MGON GYIS STAG LUNG LHA
KHANG CHEN MO BZHENGS,

1225 4) SHING BYA, NE RING PA BDE LEGS RGYAL MTSAN 'KHRUNGS, KHA
CHE PAn CHEN GSHEGS, ZHANG STON MA DBANG RGYAL GYIS GDAN SA LO
BCU GSUM MDZAD, TI SHR'I KUN DGA' BLO GROS KYIS BYANG NGAM RING
CHOS SDE BTAB, LHA BLO GROS 'OD BTZAS, KHRO PHU LO TZ'A BA BYAMS
PA'I DPAL 'DAS,

1226 4) ME KHYI,

1227 4) ME PHAG  THOG KHA BA RIN CHEN SENG GE 'KHRUNGS, MI NYAG
GI YUL HOR GYIS BCOM, GTZANG PA DUNG KHUNG PAS HOR JING GIR
RGYAL PO LA CHOS BSHAD, JING GIR RGYAL POS BAN DE SHED BSKYED
KYI 'JA' SA BYIN, SHIS ZH'A RGYAL RABS RDZOGS, SOG PO'I LO RGYUS
SU HOR JING GIR RGYAL PO 'DAS ZHES GSAL,

1228 4) SA BYI, SOG PO'I LO RGYUS 'GAR AO GO TA'I RGYAL SAR
'KHOD ZER,

1229 4) SA GLANG, BYA YUL BA SANGS RGYAS SGOM PA GSHEGS, SGAM PO
BA SNYI BA JO SRAS 'KHRUNGS,

1230 4) LCAGS STAG  RTA STON JO BO YE SHES GSHEGS, GRUB CHEN AU
RGYAN PA 'KHRUNS,

1231 4) LCAGS YOS, JO 'BER GSHEGS, STAG LUNG BKRA SHIS BLA MA
'KHRUNGS, SANGS RGYAS SNYING PO ZHANG GI GDAN SAR PHEBS,

1232 4) CHU 'BRUG  LHA LUNG GI DBANG PHYUG GSHEGS, BYA YUL KHAMS
LUNG PA DANG, SANGS RGYAS JO BO, ZHANG STON CHOS BLO RNAMS
'KHRUNGS, SNAR THANG GI GRO MO CHE 'DAS,

1233 4) CHU SBRUL, GA-YA' BZANG PA GSHEGS NAS GDAN SAR NYE GNAS
JO SRAS BZHUGS, ROG SHES RAB BLA MA GSHEGS, GU RU CHOS DBANG GIS
GNAM SKAS BRAG NAS GTER BTON,

@3229

1234 4) SHING RTA, RNGOG KUN DGA' RDO RJE DANG, DBON RIN PO CHE
GNYIS GSHEGS, SPYAN SNGA GRAGS PA 'BYUNG GNAS 'BRI GUNG GI GDAN
SAR PHEBS, MKHAS GRUB SHANGS STON TSUL KHRIMS MGON PO 'KHRUNGS,

1235 4) SHING LUG  'GRO MGON 'PHAGS PA DANG, RNGOG SENG GE SGRA
GNYIS 'KHRUNGS, RGYAL BA RIN CHEN THOG RDUGS PA GRAGS PA BRTZON
'GRUS PHAG GRU'I GDAN SAR PHEBS,

1236 4) ME SPREL, SKU YAL BA RIN CHEN MGON GSHEGS NAS SANGS
RGYAS YAR BYON SHES RAB BLA MA STAG LUNG GI GDAN SAR PHEBS, SGOM
BDE BAS SKU 'BUM RTZA BZHENGS, SGAM PO BA SNYI SGOM CHEN PO
GSHEGS,

1237 4) ME BYA, 'BRUG PA DBON RAS DHARMA SENG GE GSHEGS, GZHON
NU SENG GE GDAN SAR 'KHOD, SA LE BA SH'AKYA RIN CHEN BTZAS,

1238 4) SA KHYI, RGYAL GYI GDAN SA STONG, SA SKYA PA RIN CHEN
RGYAL MTSAN DANG, YE SHES 'BYUNG GNAS, LHO BRAG KHA BA BLO GROS
YE SHES RNAMS 'KHRUNGS, SANGS RGYAS GZHON NU ZHANG GI GDAN SAR
'KHOD, KHA CIG MTSAMS BCAD PA BTZAS ZER,

1239 4) SA PHAG  ZANGS TSA BSOD NAMS RGYAL MTSAN GSHEGS, 'GRO
MGON PHYAG NA BTZAS, 'DI LO NAS SA 'BRI KA TSAL RNAMS KYIS HOR
RGYAL PO SO SOR MGO BTAGS NAS BCAD BZUNG SA KHUL CHAGS,

1240 4) LCAGS BYI, RIN PO CHE GRAGS PA YE SHES, MTSAMS BCAD PA
GRAGS PA BSOD NAMS, ZHANG DKON MCHOG DPAL RNAMS 'KHRUNGS, DOR
RTA'I HOR DMAG GIS RGYAL LHA KHANG MER BSREGS PAR RJES SU 'GYOD
NAS ZHIG GSO BYAS, CHOS 'BYUNG MKHAS PA'I DGA' STON DU, HOR DMAG
GIS PO TA LA'I LHA KHANG MER BSREd, RGYAL TSA DANG, JO 'BER BSAD
CES 'BYUNG,

1241 4) LCAGS GLANG, DBON SHER 'BYUNG GSHEGS, SNAR THANG DU CHOS
KYI BLA MA 'DAS NAS SANGS RGYAS SGOM PA GDAN SAR 'KHOD,

1242 4) CHU STAG  GA-YA' BZANG PA'I NYE GNAS JO SRAS GSHEGS,
SNYE THANG GRAGS SENG GES BSTAN RTZIS MDZAD,

1243 4) CHU YOS, RNYING MA'I GRUB THOB ME LONG RDO RJE DANG, JO
NANG KUN SPANGS THUGS RJE BRTZON 'GRUS, RNGOG RIN CHEN BZANG PO
BCAS 'KHRUNGS, RTOG LDAN RGYAL BA DGE MDZES 'OD GA-YA' BZANG GI
GDAN SAR PHEBS, HOR GYI RGYAL POS TSAL PA GDAN DRANGS SHING 'JA'
SA BYIN,

@3230

1244 4) SHING 'BRUG  SA SKYA PAn CHEN HOR YUL DU BYON, 'PHAGS PA
DANG PHYAG NA GNYIS KYANG PHEBS, ROG SHES RAB 'OD 'DAS,

1245 4) SHING SBRUL, ROG ZHIG PO RIN CHEN SHES RAB 'DAS,

1246 4) ME RTA, RNGOG SLOB DPON CHOS RDOR 'KHRUNGS, SA SKYA PAn
CHEN LANG JUR PHEBS,

1247 4) ME LUG  SNYE MDO SMRA BA'I SENG GE 'DAS,

1248 4) SA SPREL, LO RGYUS KHAG GCIG TU AO GO TA'I 'DAS PA DANG
AO GO TA'I BU GO YUG ZLA BA DRUG RGYAL SAR BSDAD PAR BSHAD, MONG
GOL HAN KHRIR 'KHOD, SA PAn LA NYAMS SAD BYAS, PAD MA LAS 'BREL
RTZAL 'KHRUNGS, CHOS 'BYUNG MKHAS PA'I DGA' STON DU GO YUG LO
DRUG RGYAL SAR BSDAD PAR BSHAD,

1249 4) SA BYA, DUS MKHYEN GYI SLOB MA GANGS PA CHOS RJE DANG,
SPOM BRAG PA BSOD NAMS RDO RJE GNYIS GSHEGS,

1250 4) LCAGS KHYI, SPYAN SNGA RIN PO CHE GNYIS MCHOD PA GRAGS
PA RIN CHEN DANG, ZHANG DKON MCHOG DPAL GNYIS 'KHRUNGS, LO RAS
PA GSHEGS, CHOS 'BYUNG MKHAS PA'I DGA' STON DU LO 'DIR MONG GOL
HAN KHRIR 'KHOD PAR BSHAD, SNAR THANG PA SANGS RGYAS SGOM PA
'DAS,

1251 4) LCAGS PHAG  STAG LUNG SANGS RGYAS DBON GRAGS PA DPAL
DANG 'BRUG PA NYI MA SENG GE GNYIS 'KHRUNGS, GO DAN GYI SAR SA
PAn GSHEGS, GO DAN RGYAL PO 'DAS ZER,

1252 4) CHU BYI, SNAR THANG PA MCHIMS NAM MKHA' GRAGS PA
'KHRUNGS, SNYE THANG GRAGS PA SENG GES BSTAN RTZIS BRTZAMS, MONG
GOL HAN RGYAL SAR 'KHOD, HOR DMAG BOD DU 'BYOR NAS MON MKHAR
MGON PO GDONG BCOM,

1253 4) CHU GLANG, 'PHAGS PAS HOR GYI BLA MCHOD MDZAD, SA PAn
GSHEGS PA'I GDUNG NGO MTSAR CAN BYON PA LA TO PE LA SOGS PA DAD
NAS 'PHAGS PA LA DBANG ZHUS, DGE BSHES GNAS BRTAN GYIS RGYAL GYI
GDAN SA LO BZHI MDZAD,

1254 4) SHING STAG  KAM KAM ZHIG PO 'DUL GRA BA GSHEGS, RNAM
SRAS MDUNG DMAR CAN GYIS BSKUL BA LTAR KARMA PAKSHI RGYA NAG TU
BYON, 'PHAGS PAS BYANG DU SKU 'BUM MDZAD,

1255 4) SHING YOS, SNYE THANG MKHAN PO GRAGS PA SENG GE LAS
'PHAGS PA DGUNG LO NYER GCIG PA BSNYEN PAR RDZOGS, KAM KAM RIN
CHEN GZHON NU 'KHRUNGS, SPYAN SNGA GRAGS 'BYUNG GSHEGS, GCUNG DE
MO 'BRI GUNG GI GDAN SAR 'KHOD, CHOS LUNG TSOGS PA BTZUGS,

@3231

1256 4) ME 'BRUG  BYA YUL ZOM RIN PO CHE GSHEGS, GU RU CHOS
DBANG GIS CHOS DRUG MKHAR KHANG MA GTER NAS DRANGS, KARMA PAKSHI
HOR RGYAL PO'I BLA MA MDZAD,

1257 4) ME SBRUL, GLANG STON SENG GE 'BUM GYIS RGYAL GYI GDAN SA
LO NYI SHU RTZA GSUM MDZAD, STAG LUNG CHOS RJE SANGS RGYAS DPAL
BZANG PO 'KHRUNGS, KARMA PAKSHISA RDZU 'PHRUL GYIS HOR RGYAL PO
CHOS LA BTZUD CING, GRUB RTAGS DANG PO BSTAN,

1258 4) SA RTA, 'BRUG PA SENG GE RIN CHEN 'KHRUNGS, CHOS RJE
RGOD TSANG PA MGON PO RDO RJE DANG, RGYAL BA YANG DGON PA GNYIS
GSHEGS, SNYE MDO KUN DGA' BZANG PO 'KHRUNGS,

1259 4) SA LUG  LHA 'GRO BA'I MGON PO GSHEGS, NE RING PA BDE
LEGS RGYAL MTSAN GYIS NE RING GI GTZUG LAG KHANG BTAB, MONG GOL
HAN 'DAS,

1260 4) LCAGS SPREL, HO PI LI SE CHEN HAN RGYAL SAR 'KHOD, 'GRO
MGON 'PHAGS PA MCHOD GNAS SU BSTEN NAS DBANG ZHUS, DBANG YON DU
KHRI SKOR BCU GSUM PHUL, DE NAS BZUNG SA SKYAS BOD KYI SRID
DBANG BZUNG, KARMA PAKSHISA HOR YUL DU GRUB RTAGS THENGS GNYIS
PA BSTAN, JO NANG PA YON RGYAM DANG, BSAM GLING PA SANGS RGYAS
'BYUNG BA 'KHRUNGS,

1261 4) LCAGS BYA, KO BRAG PA BSOD NAMS RGYAL MTSAN GSHEGS,
'BRUG PA MKHAS BTZUN RGYAL MTSAN 'BUM 'KHRUNGS, KARMA PAKSHISA
RGYAL KHAMS THAMS CAD NAD DANG MU GE'I 'JIGS PA LAS BSKYABS TE
GRUB RTAGS THA MA BSTAN,

1262 4) CHU KHYI, BDAG CHEN BZANG PO DPAL BTZAS, SA SKYA DPON
CHEN SH'AKYA BZANG POS SA SKYA'I GSER THOG DANG, GSER 'BUM
BZHENGS, STAG LUNG LO TZ'A BA SH'AKYA BZANG PO 'KHRUNGS,

1263 4) CHU PHAG  KARMA PAKSHISA NYE GNAS SNGON LA BTANG NAS
MTSUR PHUR LHA KHANG BZHENGS, KUN MKHYEN ZUL PHU BA 'KHRUNGS,

1264 4) SHING BYI, CHAG LO TZ'A BA CHOS RJE DPAL 'DAS, SMAN LUNG
GU RU RGYA GAR DU PHEBS, KARMA PAKSHI RGYA NAG NAS BOD DU LOG
BYA YUL BA TSUL KHRIMS SENG GE 'KHRUNGS, TSAL PA SH'AKYA 'BUM
'KHRUNGS, 'DI LOR BOD KHUL DU SA GA-YO CHEN PO BYUNG, HOR SE
CHEN RGYAL POS MKHAR CHEN BZHI BZHENGS 'GO TSUGS,

1265 4) SHING GLANG, 'GRO MGON 'PHAGS PA BOD DU BYON, DPON CHEN
SH'AKYA BZANG POS SA SKYA'I LHA KHANG CHEN MO BZHENGS 'GO TSUGS,

@3232

1266 4) ME STAG  ME LONG RDO RJE'I SLOB MA RNYING MA KU M'A R'A
DZA DANG, 'BRUG PA GZHON NU SENG GE GNYIS 'KHRUNGS, LO 'DIR HOR
DMAG GIS BOD LA MI 'TSE BA'I 'JAM LAM BTOD PA 'DRA,

1267 RAB BYUNG LNGA PA, ME YOS, SE CHEN HAN GYIS RGYAL BA THOG
RDUGS PA LA 'BUL MO CHE BYAS TE 'BRI GUNG PA'I YON BDAG TU GYUR,
'GRO MGON PHYAG NA DANG THOG RDUGS PA GNYIS KYANG GSHEGS, GCUNG
BCU GNYIS PA RIN CHEN RDO RJE PHAG GRU'I GDAN SAR PHEBS, MCHIMS
NAM MKHA' GRAGS GSHEGS, 'GRO MGON 'PHAGS PA SLAR YANG RGYA NAG
TU PHEBS,

1268 5) SA 'BRUG  SNYE MDO KUN DGA' DON GRUB DANG, PHYAG NA'I
SRAS DHARMA P'A LA RAKshI TA, SANGS RGYAS SGOM PA GSAR MA GSUM
'KHRUNGS,

1269 5) SA SBRUL, HOR GYIS BOD LA MI 'TSE BA'I 'JAM LAM BTOD,
KHA CIG RGYAL BA THOG RDUd PA GSHEGS ZER, KHA CIG DPON CHEN
SH'AKYA BZANG POS SA SKYA'I LHA KHANG CHEN MO BZHENGS 'GO TSUGS
ZER, GTER STON GU RU CHOS DBANG GSHEGS,

1270 5) LCAGS RTA, KHA CIG RGYAL BA THOG RDUGS PA GSHEGS ZER,
'GRO MGON 'PHAGS PAS SOG YIG GSAR BTOD BYAS ZER, SE CHEN HAN
GYIS 'GRO MGON 'PHAGS PAR TI SHR'I GO GNAS DANG, 'JA' SA, SHEL
DAM PHUL,

1271 5) LCAGS LUG  KHA RAG GRAGS RGYAL BA GSHEGS, HOR SE CHEN
RGYAL POS RGYAL SA PE CIN DU SPOS, RGYAL MING BSGYUR, SE CHEN
RGYAL POS MKHAR CHEN BZHI LO 'DIR GRUB, MKHAS PA'I DGA' STON DU
GU RU CHOS DBANG 'DAS PAR BSHAD,

1272 5) CHU SPREL, STAG LUNG SANGS RGYAS YAR BYON GSHEGS NAS
MANG GA LA GU RU STAG LUNG GI GDAN SAR PHEBS, BYA YUL BA GZHON
NU SMON LAM BTZAS,

1273 5) CHU BYA, KHA CIG GIS GU RU CHOS DBANG DPON SLOB GSUM PO
TA LA NAS GSHEGS ZER, STAG LUNG SANGS RGYAS DBON KHAMS SU BYON,

1274 5) SHING KHYI, SA SKYA PA YE SHES 'BYUNG GNAS GSHEGS, BAL
BOD MTSAMS SU THAR PA GLING BTAB,

1275 5) SHING PHAG  'JAM DBYANGS BLO GROS SENG GES MDO RGYUD
LUNG GSAL DANG, BSTAN RTZIS MDZAD, LO RGYUS KHA CIG TU LO 'DIR
CHOS SRID ZUNG 'BREL GYI 'GO TSUGS ZHES GSAL, SA SKYA'I DPON
CHEN SH'AKYA BZANG POS KHRI SKOR BCU GSUM GYI DPON BYAS,

@3233

1276 5) ME BYI, 'PHAGS PA SLAR YANG BOD DU PHEBS NAS GTZANG CHU
MIG RING MOR DGE 'DUN KHRI PHRAG BDUN LA BSNYEN BKUR TE CHU MIG
CHOS 'KHOR MDZAD, DPANG LO TZ'A BA BLO GROS BRTAN PA 'KHRUNGS,
SANGS RGYAS DBON GYIS RI BO CHE BTAB,

1277 5) ME GLANG, LHA ZUR KHANG PA DANG, GRUB CHEN GRAGS PA BSOD
NAMS DPAL GNYIS 'KHRUNGS, KHA CIG SANGS RGYAS DBON GYIS RI BO
CHE BTAB ZER, HOR RGYAL PO AA ROG CHES GNYAL LA HOR DMAG BYAS,
ZANGS CHEN PA BKRONGS, SNYE MDO THAMS CAD MKHYEN PA 'DAS,

1278 5) SA STAG  RIN PO CHE RDOR RIN PA 'KHRUNGS,

1279 5) SA YOS, SA SKYA PA RIN CHEN RGYAL MTSAN GSHEGS, GCUNG DE
MO GSHEGS NAS THOG KHA BA RIN CHEN SENG GE 'BRI GUNG GI GDAN SAR
PHEBS, SGAM PO BA CHOS KYI RGYAL MTSAN 'KHRUNGS, GCUNG BYA BRAL
YE SHES BLA MA 'KHRUNGS, SUNG LHO MA'I RGYAL RABS RDZOGS,

1280 5) LCAGS 'BRUG  'KHON PO BAR BAS RGYAL GYI GDAN SA LO DGU
MDZAD, 'GRO MGON 'PHAGS PA, SANGS RGYAS RAS PA, GCUNG BCU GNYIS
PA RIN CHEN RDO RJE, RTOGS LDAN RGYAL BA SENG GE MDZES 'OD BZHI
GSHEGS, STAG LUNG PA SANGS RGYAS DBON GYIS YANG DGON BTAB,

1281 5) LCAGS SBRUL, RNGOG GZI BRJID GRAGS PA DANG, NE RING PA
BDE LEGS RGYAL MTSAN GNYIS GSHEGS, RIN PO CHE GRAGS PA YE SHES
KYIS PHAG GRU'I GDAN SA MDZAD, GA-YA' BZANG GDAN SAR MKHAR CHU
BA CHOS BSAM 'OD PHEBS, HOR DMAG GIS BYA ROG RDZONG BCOM NAS
DPON CHEN KUN DGA' BZANG PO BSAD, DHARMA PA LA SA SKYA'I GDAN
SAR 'KHOD,

1282 5) CHU RTA, BYA YUL KHAMS LUNG PA DANG ZHVA DMAR BKRA SHIS
GRAGS PA GNYIS GSHEGS, GRUB CHEN AO RGYAN PAS BSAM YAS SU BSTAN
RTZIS MDZAD, DEB THER DMAR POR 'DI LO SA SKYA PA RIN CHEN RGYAL
MTSAN 'DAS PAR BSHAD, MI NYAG SGA LO 'DAS,

1283 5) CHU LUG  RNGOG CHOS KYI RGYAL MTSAN DANG, ZHVA DMAR PA
RTOGS LDAN GRAGS PA SENG GE GNYIS 'KHRUNGS, KARMA PAKSHI GSHEGS,
LO 'DIR GTZANG STON GYIS GDAN SA MDZAD, GTER STON CHEN MO JO MO
SMAN MO GSHEGS,

1284 5) SHING SPREL, BYA YUL BA SANGS RGYAS SGOM PA PHYI MA,
KARMA RANG BYUNG RDO RJE, 'BRI GUNG NYER BRGYAD PA, RDO RJE
RGYAL PO BZHI 'KHRUNGS, RNGOG RGYAL PO DGA' GSHEGS, DRUNG CHEN
SMON LAM RDO RJE BTZAS PAR TSAL PA'I DKAR CHAG LAS BSHAD,

@3234

GDONG THOG PAS GA-YUNG STON RDO RJE DPAL 'KHRUNGS PAR BSHAD,

1285 5) SHING BYA, 'BRI GUNG PAS BYA YUL MER BSREGS, GTZANG STON
BKRONGS, THOG KHA BA RIN CHEN SENG GE GSHEGS NAS MTSAMS BCAD PA
'BRI GUNG GI GDAN SAR PHEBS, YAR RJE AO RGYAN GLING PAS BKA'
THANG SDE LNGA DANG, PAD MA BKA' THANG BSAM YAS DANG SHEL BRAG
NAS GTER DU BTON,

1286 5) ME KHYI, KAM KAM BSOD NAMS RIN CHEN GSHEGS, DPANG LO
TZ'A BA BLO GROS BRTAN PA 'KHRUNGS ZHES KHA CIG ZER,

1287 5) ME PHAG  SA SKYA DHARMA P'A LA RAKshI TA DANG, 'BRUG PA
NYI MA SENG GE GNYIS GSHEGS, RGYAL BA GA-YUNG STON 'KHRUNGS ZHES
'JAM BZHAD BSTAN RTZIS SU GSAL, SKYO STON GYIS SNAR THANG BZUNG,
SHAR PA 'JAM DBYANGS RIN CHEN RGYAL MTSAN SA SKYA'I KHRIR 'KHOD,
'BRI GUNG PAS STOD HOR GYI DPUNG KHRID NAS SA SKYAR DMAG DRANGS,

1288 5) SA BYI, RIN CHEN GRAGS PA YE SHES 'DAS, MTSAMS BCAD PA
GRAGS PA BSOD NAMS GSHEGS NAS CHOS SGO BA RDO RJE YE SHES 'BRI
GUNG GI GDAN SAR PHEBS, STAG LUNG RATNA GU RU 'KHRUNGS, GRUB
THOB AU RGYAN PAS KARMA PA RANG BYUNG RDO RJE KARMA PAKSHI'I
SKYE SRID DU NGOS 'DZIN BYAS, 'DI NI BOD LA SPRUL SKU NGOS 'DZIN
BYED PA'I THOG MA YIN,

1289 5) SA GLANG, BYANG CHUB SEMS DPAS RGYAL GYI GDAN SA LO BCO
BRGYAD MDZAD, RIN PO CHE GNYIS MCHOD PA PHAG GRU'I GDAN SAR
PHEBS, 'BRUG PA SENG GE RGYAL PO 'KHRUNGS, SUM PA MKHAN CHEN
GYIS MCHIMS NAM MKHA' GRAGS 'DAS PAR 'DOD,

1290 5) LCAGS STAG  BU STON RIN PO CHE DANG, SHE'I RGYAL SRAS
LEGS LDAN PA, RNGOG GZI BRJID RGYAL MTSAN RNAMS 'KHRUNGS, SA
SKYA PA'I DMAG GIS 'BRI GUNG BCOM STE 'BRI GUNG GLING LOG BYUNG,

1291 5) LCAGS YOS, SANGS RGYAS JO BOS BYA YUL ZHIG GSO MDZAD,
HOR DMAG DVAGS KONG DU DRANGS, TSAL PA DGA' BDE DPAL BA BTZON DU
BZUNG, BYA YUL BA TSUL KHRIMS MGON PO DANG, GRUB THOB CHOS
'BYUNG RIN CHEN 'KHRUNGS,

1292 5) CHU 'BRUG  KUN MKHYEN DOL PO SHES RAB RGYAL MTSAN
'KHRUNGS, SE CHEN GYIS GRUB CHEN AO RGYAN PA GDAN DRANGS, KUN
MKHYEN CHOS SKU 'OD ZER 'DAS, SHANG PA GSER GLING PA BKRA SHIS
DPAL 'KHRUNGS,

1293 5) CHU SBRUL, TSES BZHI RNYING MA GRAGS PA RGYAL MTSAN
'KHRUNGS, CHOS SGO BA RDO RJE YE SHES

@3235

GSHEGS NAS RIN PO CHE RDOR RIN PA 'BRI GUNG GI GDAN SAR 'KHOD,
AU RGYAN MGON 'KHRUNGS,

1294 5) SHING RTA, MKHAN PO DZNYA NA PRADZNYA 'KHRUNGS, SE CHEN
HAN 'DAS NAS AOL JO THU RGYAL SAR 'KHOD, AOL JO THU'I RING LA
SNAR THANG GI BSTAN 'GYUR BYUNG,

1295 5) SHING LUG  RNYING MA 'JAM DBYANGS BSAM 'GRUB RDO RJE
DANG, DNGUL CHU RGYAL SRAS THOGS MED BZANG PO DANG, SPANG MKHAN
CHEN 'OD ZER BLA MA GSUM 'KHRUNGS,

1296 5) ME SPREL, STAG LUNG SANGS RGYAS DBON GRAGS PA DPAL DANG,
SGAM PO BA SNYI JO SRAS GNYIS GSHEGS, 'GA' ZHIG SE CHEN HAN 'DAS
ZER,

1297 5) ME BYA, MANGGA LA GU RU GSHEGS NAS CHOS RJE SANGS RGYAS
DPAL BZANG PO STAG LUNG GI GDAN SAR PHEBS, STAG LUNG PA AU RGYAN
MGON PO RI BO CHER PHEBS,

1298 5) SA KHYI, MKHAR CHU BA CHOS BSAM 'OD GSHEGS, RGYAL BA
GA-YUNG STON RGYA NAG TU SPYAN DRANGS, BDAG CHEN BZANG PO DPAL
BOD DU LOG

1299 5) SA PHAG  SA SKYA PA TI SHR'I KUN DGA' BLO GROS DANG,
GA-YAG SDE PAn CHEN GNYIS 'KHRUNGS, GA-YA' BZANG GI GDAN SAR Z'A
RA PA BDE LEGS 'OD PHEBS,

1300 5) LCAGS BYI, STAG LUNG CHOS RJE RATNA KA RA 'KHRUNGS,

1301 5) LCAGS GLANG,

1302 5) CHU STAG  TA'I SI TU BYANG CHUB RGYAL MTSAN DANG, LO
CHEN BYANG CHUB RTZE MO GNYIS 'KHRUNGS,

1303 5) CHU YOS, GRUB CHEN ME LONG RDO RJE GSHEGS, KARMA PA RANG
BYUNG RDO RJES LHA STENG BTAB, 'KHRUL ZHIG DHARMA SENG GE 'DAS,

1304 5) SHING 'BRUG  AU RGYAN MGON PO RI BO CHE'I KHRIR 'KHOD,

1305 5) SHING SBRUL, BDAG CHEN NAM MKHA' LEGS PA DANG, KAM KAM
RIN CHEN SENG GE 'KHRUNGS,

1306 5) ME RTA, BDAG CHEN BZANG PO DPAL SA SKYA'I GDAN SAR
PHEBS,

1307 5) ME LUG  KUN SPANG LHA RI BAS RGYAL GYI GDAN SA LO BCO
BRGYAD MDZAD, AOL JO THU 'DAS,

1308 5) SA SPREL, RNGOG SENG GE SGRA GSHEGS, BDAG CHEN KUN DGA'
LEGS PA'I RGYAL MTSAN 'KHRUNGS, RNYING MA'I KUN MKHYEN KLONG
CHEN RAB 'BYAMS 'KHRUNGS, SE CHEN GYI YANG TSA KHU LUG RGYAL PO
KHRIR 'KHOD,

1309 5) SA BYA, CHOS RJE DPAL BZANG POS RATNA GU RU STAG LUNG GI
GDAN SAR BKOD NAS RANG NYID KUN SPANG MDZAD, GRUB CHEN AU RGYAN
PA DANG MKHAS GRUB SHANGS STON

@3236

GSHEGS, CHOS RJE DON GRUB RIN CHEN DANG, TSAL PA KUN DGA' RDO
RJE 'KHRUNGS,

1310 5) LCAGS KHYI, TI SHR'I KUN DGA' RGYAL MTSAN, BCU GNYIS
GSAR MA GRAGS PA SHES RAB, CHOS RJE 'BA' RA BA, 'JAGS CHEN BYAMS
PA DPAL RNAMS 'KHRUNGS, RIN PO CHE GNYIS MCHOD PA DANG, CHOS RJE
DPAL BZANG PO GNYIS GSHEGS, 'JAM DBYANGS CHOS BZHI RNYING MA
PHAG GRU'I GDAN SAR 'KHOD, HOR RGYAL KHU LUG 'DAS,

1311 5) LCAGS PHAG  RNGOG SLOB DPON CHOS RDOR DANG, STAG LUNG
CHOS RJE SANGS RGYAS DPAL BZANG PO 'DAS, KHU LUG GI GCUNG PO AA
DUR PAR PA TA BU YAN DU KHRIR 'KHOD,

1312 5) CHU BYI, BYA YUL BA SANGS RGYAS JO BO GSHEGS, BLA MA DAM
PA BSOD NAMS RGYAL MTSAN DANG, BDAG CHEN NAM MKHA' RGYAL MTSAN
'KHRUNGS, STAG LUNG CHOS RJE YE SHES BLA MA RGYA GAR DU 'DAS,

1313 5) CHU GLANG, 'BRUG PA SENG GE RIN CHEN GSHEGS NAS 'BRUG PA
SENG GE RGYAL PO RA LUNG GI GDAN SAR 'KHOD, JO NANG KUN SPANGS
'DAS NAS RGYAL BA YE SHES JO NANG GI GDAN SAR 'KHOD,

1314 5) SHING STAG  MKHAN CHEN 'JAM DPAL YE SHES DANG, 'BRUG PA
KUN DGA' SENG GE GNYIS 'KHRUNGS, DUNG MTSO RAS PAS TZA RI'I GNAS
SGO PHYES,

1315 5) SHING YOS, RIN PO CHE RDOR RIN PA GSHEGS NAS RDO RJE
RGYAL PO 'BRI GUNG GI GDAN SAR 'KHOD, LHA KHANG CHEN MO BZHENGS,
RONG PA SHES RAB SENG GE 'DAS,

1316 5) ME 'BRUG  SNYE MDO KUN DGA' BZANG PO 'DAS, DUNG MTSO RAS
PAS SEMS KHRID SKOR GTER NAS BTON,

1317 5) ME SBRUL, ZHANG DKON MCHOG DPAL BA GSHEGS,

1318 5) SA RTA, RANG BYUNG RDO RJES RTZIS KUN LAS BTUS PA MDZAD,
CHOS RDOR BAS SNYING THIG RGYAL SRAS LEGS LDAN PA LA GTAD,

1319 5) SA LUG  RNGOG RIN CHEN BZANG PO GSHEGS, SGAM PO BA SANGS
RGYAS CHOS KYI SENG GE 'KHRUNGS,

1320 5) LCAGS SPREL, AU RGYAN MGON POS RI BO CHE'I GTZUG LAG
KHANG BZHENGS 'GO TSUGS, JO NANG GI GDAN SAR JO NANG PA YON TAN
RGYA MTSO 'KHOD, HOR RGYAL PO BO YAN THU 'DAS,

1321 5) LCAGS BYA, BO YAN THU'I BU KE GEN HAN RGYAL SAR 'KHOD,

@3237

1322 5) CHU KHYI, BU STON RIN PO CHES BSTAN RTZIS MDZAD, BDAG
CHEN BZANG PO DPAL DANG, ZA RA BA BDE LEGS 'OD GNYIS GSHEGS, TI
SHR'I KUN DGA' BLO GROS BOD DU LOG

1323 5) CHU PHAG  BKRA SHIS 'OD GA-YA' BZANG GDAN SAR PHEBS, HOR
KE GEN 'DAS, YAR RJE AO RGYAN GLING PA 'KHRUNGS,

1324 5) SHING BYI, BDAG CHEN KUN DGA' BLO GROS KYIS SA SKYA'I
BLA BRANG KHAG BZHIR BGOS, MKHAS BTZUN PAR SHEL THAM DANG, BZHI
THOG TI SHR'I LEGS 'BYUNG SPUN LA GSER THAM DANG, LHA KHANG BLA
BRANG 'JAM DBYANGS DON RGYAL SPUN LA SHEL THAM DANG, RIN SGANG
DBANG KUN LEGS MING SRING LA GSER DAM GNANG, YE SUN THE MUR
RGYAL SAR 'KHOD, T'A DBEN BLO GROS RGYAL MTSAN BTZAS,

1325 5) SHING GLANG, MKHAN CHEN DZNYA NA PRADZNYA RGYAL GYI GDAN
SAR PHEBS, BDAG CHEN NAM MKHA' LEGS PAS SA SKYA'I GDAN SA MDZAD,
'BRUG PA SENG GE RGYAL PO GSHEGS, BDAG CHEN KUN DGA' BLO GROS
SLAR YANG RGYAL PO'I BLA MAR BYON, SANGS RGYAS STON PA 'DAS,

1326 5) ME STAG  LHO BRAG GRUB CHEN NAM MKHA' RGYAL MTSAN
'KHRUNGS, BU STON THAMS CAD MKHYEN PAS RTZIS GZHUNG MKHAS PA
DGA' BYED BRTZAMS, SANGS RGYAS SGOM PA PHYI MA BYA YUL GYI GDAN
SAR 'KHOD, DOL PO BA SHES RAB RGYAL MTSAN JO NANG GI GDAN SAR
'KHOD,

1327 RAB BYUNG DRUG PA, ME YOS, JO NANG PA YON TAN RGYA MTSO,
SA SKYA PA KUN BLO DANG, KAM KAM RIN CHEN GZHON NU RNAMS GSHEGS,
BU STON GYIS RTZIS GZHUNG MKHAS PA DGA' BYED BRTZAMS, RI BO
CHE'I LHA KHANG GRUB,

1328 6) SA 'BRUG  SA SKYA BSOD NAMS RGYAL MTSAN GYIS RGYAL RABS
GSAL BA'I ME LONG BRTZAMS, HOR YE SUN THE MUR 'DAS, RIN 'PHAGS
DANG KO SA LI YANG 'DAS,

1329 6) SA SBRUL, HOR THE KAN THE MUR 'JA' YA THU RGYAL SAR
'KHOD,

1330 6) LCAGS RTA, MKHAN PO YE SHES BSOD NAMS RGYAL MTSAN DANG,
MDZO RA BA GONG MA GRAGS PA RIN CHEN BTZAS,

1331 6) LCAGS LUG  SHE'I LEGS LDAN DANG, RANG BYUNG BAS SNYING
THIG SHOG SER LAS BSGYUR, RANG BYUNG BA HOR YUL DU BYON, BDAG
CHEN NAM MKHA' RGYAL MTSAN 'DAS, RNGOG SENG GE 'BUM GYI BU DON
GRUB DPAL BTZAS,

1332 6) CHU SPREL, T'A DBEN CHOS KYI RGYAL MTSAN DANG, STAG BDE
BA SENG GE RGYAL MTSAN, TI

@3238

SHR'I BSOD NAMS BLO GROS RNAMS 'KHRUNGS, 'JA' YA THU 'DAS PA'I
RJES SU RIN CHEN DPAL GYIS ZLA BA GCIG HOR GYI RGYAL SRID BZUNG
NAS 'DAS ZER,

1333 6) CHU BYA, STAG LUNG CHOS RJE NAM MKHA' DPAL BZANG PO,
'BRI GUNG DON GRUB RGYAL PO, DPAL LDAN TSUL KHRIMS GSUM
'KHRUNGS, HOR THO KAN THU MUR RGYAL SAR 'KHOD,

1334 6) SHING KHYI, MKHAS BTZUN RGYAL MTSAN 'BUM GSHEGS, RJE
RANG BYUNG PA RI BO RTZE LNGAR PHEBS SHING THUGS RJE CHEN PO
ZHAL GZIGS PAS BSKUL NAS BOD DU PHEBS, MCHIMS BLO BZANG GRAGS PA
SNAR THANG GI GDAN SAR 'KHOD,

1335 6) SHING PHAG  'BRI GUNG CHOS KYI RGYAL PO DANG, LHA GRAGS
PA 'OD GNYIS 'KHRUNGS, RANG BYUNG BAS MI NYAG GI YUL DU BSTAN PA
ZHIG GSO MDZAD,

1336 6) ME BYI, SGAM PO BA CHOS KYI RGYAL MTSAN DANG, BDAG CHEN
KUN DGA' LEGS PA'I RGYAL MTSAN GSHEGS, DBANG GRAGS PA RGYAL
MTSAN 'KHRUNGS,

1337 6) ME GLANG, LHA ZUR KHANG PA GSHEGS, GTER STON RIG 'DZIN
RGOD LDEM DNGOS GRUB RGYAL MTSAN GTZANG NGAM RING DU 'KHRUNGS,

1338 6) SA STAG  SANGS RGYAS SGOM PA PHYI MA GSHEGS, MNGA' RIS
YA TZI'I RGYAL PO BSOD NAMS LDE DANG, JO BO SH'AKYA MGON PO
GNYIS KYIS PHO BRANG YUM BU BLA MKHAR NYAMS GSO MDZAD, SA SKYA'I
TI SHR'I KUN DGA' RGYAL MTSAN GYIS RAB GNAS MDZAD,

1339 6) SA YOS, KARMA PA RANG BYUNG RDO RJE RGYA NAG TU GSHEGS,
RATNA KA RA 'DAS, RATNA KA RA STAG LUNG GDAN SAR PHEBS, GRUB
CHEN SANGS RGYAS DPAL DANG, T'A DBEN KUN DGA' RIN CHEN, CHOS RJE
SANGS RGYAS RIN CHEN, MDZO RA BA 'OG MA RIN CHEN SENG GE RNAMS
'KHRUNGS,

1340 6) LCAGS 'BRUG  KARMA ROL PA'I RDO RJE 'KHRUNGS, GTER CHEN
SANGS RGYAS GLING PA 'KHRUNGS,

1341 6) LCAGS SBRUL, BYA YUL GYI GDAN SAR TSUL KHRIMS MGON PO
'KHOD,

1342 6) CHU RTA, KUN SPANG CHEN PO BSOD NAMS RGYAL MTSAN DANG,
SE SPYIL BA SH'AKYA BSOD NAMS SNGA MA 'KHRUNGS, DPANG LO TZ'A BA
GSHEGS,

1343 6) CHU LUG  RIG 'DZIN KU M'A R'A DZA DANG, BDAG CHEN NAM
MKHA' LEGS PA GNYIS GSHEGS, 'JAM DBYANGS DON YOD RGYAL MTSAN SA
SKYA'I GDAN SAR 'KHOD,

1344 6) SHING SPREL, RGYA STON PAS BSTAN RTZIS MDZAD CING LUNG
GI MNGON PA SONG NAS MDO SDE'I DUS KYI 'GO BRTZAM PAR 'DOD, STAG
LUNG LO TZ'A BA DANG, 'JAM DBYANGS DON YOD RGYAL MTSAN 'DAS, BLA
CHEN KUN DGA' RGYAL MTSAN 'KHRUNGS,

@3239

1345 6) SHING BYA, 'BRUG PA BLO GROS SENG GE 'KHRUNGS, BLA MA
DAM PA BSOD NAMS RGYAL MTSAN SA SKYA'I GZHI THOG GI KHRIR 'KHOD,

1346 6) ME KHYI, KAM KAM SANGS RGYAS 'OD ZER DANG, RDO RJE GLING
PA 'KHRUNGS, TSAL PA DRUNG CHEN KUN DGA' RDO RJES DEB THER DMAR
PO BRTZAMS,

1347 6) ME PHAG  LHO RIN PO CHE GRAGS PA YON TAN 'KHRUNGS, 'BRUG
PA KUN DGA' SENG GE DANG, DRUNG CHEN SMON LAM RDO RJE 'DAS, T'A
DBEN BLO GROS RGYAL MTSAN SA SKYA'I GDAN SAR 'KHOD,

1348 6) SA BYI,

1349 6) SA GLANG, TA'I SI TU BYANG CHUB RGYAL MTSAN GYIS DBUS
GTZANG LA DBANG BSGYUR, ZHVA DMAR DRUG PA RTOGS LDAN GRAGS PA
SENG GE GSHEGS, RJE BTZUN RED MDA' BA DANG THEG CHEN CHOS KYI
RGYAL PO GNYIS 'KHRUNGS, CHOS RJE DON GRUB RIN CHEN GYIS BYA
KHYUNG DGON BTAB,

1350 6) LCAGS STAG  RNYING MA BA SANGS RGYAS RIN CHEN RGYAL
MTSAN DPAL BZANG PO, GA-YAG PHRUG SANGS RGYAS DPAL, MKHAN CHEN
RIN PO CHE RGYAL BZANG PA, ZHVA DMAR MKHA' SPYOD DBANG PO, JO
NANG DUS 'KHOR BA RIN CHEN RGYAL MTSAN RNAMS 'KHRUNGS, LHA BKRA
SHIS 'OD KYIS LHA GRAGS PA 'OD LA GA-YA' BZANG GDAN SA GTAD NAS
KUN SPANG MDZAD,

1351 6) LCAGS YOS, 'BRI GUNG NYER BRGYAD PA RDO RJE RGYAL PO
GSHEGS NAS CHOS KYI RGYAL PO 'BRI GUNG GI GDAN SAR PHEBS, 'JAGS
CHEN BYAMS PA'I SLOB MA GRUB THOB SHER 'BYUNG PA 'KHRUNGS, TA'I
SI TU BYANG CHUB RGYAL MTSAN GYIS RTZIS THANG BTAB, KO TZI ZHING
GIS 'GO KHRID BYAS PA'I ZHING PA'I 'OS LANGS BYUNG,

1352 6) CHU 'BRUG  MKHAN CHEN DZNYA NA PRADZNYA GSHEGS, SE SPYIL
BA BSOD NAMS LHUN GRUB 'KHRUNGS, RTZED THANG GI GDAN SAR 'JAM
DBYANGS GU SHR'I SH'AKYA RGYAL MTSAN 'KHOD, 'GA' ZHIG BYAMS CHEN
CHOS RJE 'KHRUNGS PAR 'DOD,

1353 6) CHU SBRUL, MKHAN CHEN 'JAM DPAL YE SHES KYIS LO GCIG
RGYAL GYI GDAN SA MDZAD, TSAL PA KUN DGA' RDO RJE 'DAS, KARMA PA
ROL PA'I RDO RJE RAB TU BYUNG, BOD DU SA GA-YO CHEN PO BYUNG,

1354 6) SHING RTA, MKHAN PO YE SHES BSOD NAMS RGYA MTSO RGYAL
GYI GDAN SAR PHEBS, SHANGS RIN PO CHE 'KHRUNGS, RGYA YIG GI LO
RGYUS SU SPYI LO 1354 NAS 1618 BAR LO 264 RING PHAG MO GRU PAS
BOD KYI SRID DBANG BZUNG BAR BSHAD PA BOD KYI LO RGYUS DANG YANG
MTHUN, BYAMS CHEN CHOS RJE 'KHRUNGS,

@3240

1355 6) SHING LUG  RGYAL LHA KHANG BLO GROS SENG GE SOGS KYIS
MNGON PA'I LE'U 'GO BRTZAM PAR 'DOD,

1356 6) ME SPREL, TSES BZHI GSAR MA SPYAN SNGA GRAGS PA BYANG
CHUB DANG, RTOGS LDAN 'JAM DPAL RGYA MTSO GNYIS 'KHRUNGS,

1357 6) ME BYA, RGYAL BA BLO BZANG GRAGS PA SKU 'KHRUNGS, RVA
SGRENG PA SH'AKYA BSOD NAMS DANG, SPYAN SNGA BSOD NAMS GRAGS PA,
SNAR THANG PA GRUB PA SHES RAB RNAMS 'KHRUNGS,

1358 6) SA KHYI, GA-YAG SDE PAn CHEN GYIS AE WAm DGON PA BTAB,
TI SHR'I KUN DGA' RGYAL MTSAN 'DAS, KARMA PA ROL PA'I RDO RJE
RGYA NAG TU PHEBS, SOG PO'I NGO LOG BYUNG,

1359 6) SA PHAG  KARMA ROL PA'I RDO RJE'I DRUNG DU RJE TZONG KHA
PA DGE BSNYEN MDZAD, RNGOG CHOS KYI RGYAL MTSAN GSHEGS, CHOS RJE
BSOD NAMS GRAGS PA DANG, STAG LUNG BKRA SHIS DPAL BRTZEGS GNYIS
'KHRUNGS, GA-YAG SDE PAn CHEN GYIS NGOR AE WAm BTAB ZER,

1360 6) LCAGS BYI, RNGOG BYANG CHUB DPAL PA DANG, 'BA' RA BA'I
SLOB MA GTZANG PA BLO GROS BZANG PO GNYIS 'KHRUNGS, KARMA ROL
PA'I RDO RJE RGYA NAG TU BYON, TSES BZHI RNYING MA PA GRAGS PA
RGYAL MTSAN GSHEGS, BCU GNYIS GSAR MA PA GRAGS PA SHES RAB PHAG
GRU'I GDAN SAR PHEBS,

1361 6) LCAGS GLANG, JO MO NANG PA SHES RAB RGYAL MTSAN GSHEGS,
STAG LUNG CHOS RJE RATNA KA RA GSHEGS NAS CHOS RJE NAM MKHA'
DPAL BZANG STAG LUNG GI GDAN SAR PHEBS, THANG STONG RGYAL PO'I
RNAM THAR LTAR NA THANG STONG RGYAL PO LO 'DIR 'KHRUNGS,

1362 6) CHU STAG  CHOS RJE DON GRUB RIN CHEN GYIS RJE TZONG KHA
PA LA DBANG BSKUR TE GSANG MTSAN DON YOD RDO RJE GSOL, CHOS RJE
RI MI 'BAB PA 'KHRUNGS, TI SHR'I BSOD NAMS BLO GROS 'DAS, KUN
MKHYEN KLONG CHEN PAS CHOS 'BYUNG RIN PO CHE'I GTER MDZOD
BRTZAMS,

1363 6) CHU YOS, RJE TZONG KHA PA DGE TSUL BSGRUBS TE BLO BZANG
GRAGS PAR MTSAN GSOL, KARMA ROL PA'I RDO RJE BOD DU PHEBS, SGOD
PHRUG RAS PA 'KHRUNGS, RNYING MA'I KUN MKHYEN KLONG CHEN PA
'DAS,

1364 6) SHING 'BRUG  BU STON RIN PO CHE GSHEGS, RGYAL TSAB DAR
MA RIN CHEN DANG, 'BRUG PA YE SHES RIN CHEN GNYIS 'KHRUNGS,

@3241

1365 6) SHING SBRUL, KAM KAM PA RIN CHEN SENG GE DANG SHANGS PA
BKRA SHIS DPAL GSHEGS, KAM KAM DON GRUB DPAL PA 'KHRUNGS, LHO
RONG CHOS 'BYUNG DU TA'I SI TU BYANG CHUB RGYAL MTSAN 'DAS SAM
SNYAM,

1366 6) ME RTA, RTOGS LDAN BSAM GTAN DPAL DANG AO RGYAN MGON PO
GSHEGS, YE SHES DKON MCHOG GLING BTAB, DRUNG GZHON NU BYANG CHUB
DANG, BYANG SEMS KUN DGA' BZANG PO GNYIS 'KHRUNGS,

1367 6) ME LUG  RONG STON SH'AKYA RGYAL MTSAN 'KHRUNGS, SEMS
DPA' GZHON NU RGYAL MCHOG DANG, RIN SPUNGS NOR BU BZANG POS RONG
BYAMS CHEN DGON BTAB, AA MDO'I GRO TSANG LHA KHANG BZHENGS,

1368 6) SA SPREL, HOR RGYAL THA MA THO KAN THU MUR GYIS RGYAL SA
SHOR NAS HOR YUL DU BROS, MING RGYAL RABS KYI RGYAL PO THOG MA
HUNG WU RGYAL SAR 'KHOD, RTZIS GZHUNG NYIN BYED SNANG BA LAS
GA-YUNG STON RDO RJE DPAL BA 'DAS PAR BSHAD,

1369 6) SA BYA, KAM KAM SANGS RGYAS 'OD ZER DANG, RGYAL SRAS
THOGS MED PA GNYIS GSHEGS, 'GA' ZHIG GIS T'A MING HUNG WU RGYAL
POS GNAS BRTAN BCU DRUG RGYA NAG TU GDAN DRANGS ZHES ZER,

1370 6) LCAGS KHYI, BCU GNYIS GSAR MA GRAGS PA SHES RAB GSHEGS,
DRUNG MKHA' SPYOD PA NAM MKHA' RGYAL MTSAN 'KHRUNGS,

1371 6) LCAGS PHAG  TSES BZHI GSAR MA SPYAN SNGA GRAGS PA BYANG
CHUB PHAG GRU'I GDAN SAR PHEBS, 'BRUG PA SHES RAB SENG GE DANG,
SGAM PO BA CHOS KYI DBANG PHYUG GNYIS 'KHRUNGS, T'A SI TU BYANG
CHUB RGYAL MTSAN 'DAS,

1372 6) CHU BYI, RJE RIN PO CHE DBUS SU BYON PAR BRTZAM, KARMA
PAS MING GONG MAR 'TSAMS 'DRI ZHUS NAS, TA'I SI TU DANG, CHI
GU'I GUNG GI GO GNAS BYUNG STE KARMA PAS GONG MAR 'BREL BA BYED
PA'I 'GO TSUGS, RI RTZA BA GRAGS PA BKRA SHIS (RATNA KA RA'I
GCUNG) 'KHRUNGS,

1373 6) CHU GLANG, RJE TZONG KHA PA MDO SMAD NAS BTEGS, STON
'BRI GUNG DU PHEBS, DGUN CHOS LA SNYE THANG BDE BA CAN DU PHAR
PHYIN GSAN, HOR STON NAM MKHA' DPAL BA 'KHRUNGS,

1374 6) SHING STAG  'DUL BA 'DZIN PA GRAGS PA RGYAL MTSAN
'KHRUNGS, RJE TZONG KHA PAS SA SKYAR BLA MA DAM PA BSOD NAMS
RGYAL MTSAN LA GSANG SNGAGS KYI CHOS GSAN,

1375 6) SHING YOS, RJE RIN PO CHES GRVA SKOR MDZAD, 'GA' ZHIG
GIS BLA MA DAM PA BSOD NAMS RGYAL MTSAN GSHEGS ZER, ZHA LU BA
LEGS PA RGYAL MTSAN DANG, BO DONG

@3242

PHYOGS LAS RNAM RGYAL, T'A DBEN KUN DGA' RIN CHEN RNAMS
'KHRUNGS,

1376 6) ME 'BRUG  RJE RIN PO CHES CHOS 'KHOR THOG MA GNANG,
RNYING MA'I BLA CHEN 'JAM DBYANGS BSAM GRUB RDO RJE GSHEGS, BKRA
SHIS DPAL BRTZEGS STAG LUNG GI GDAN SAR BKOD NAS CHOS RJE NAM
MKHA' DPAL BZANG PO RANG NYID SE LER BYON, DBANG GRAGS PA RGYAL
MTSAN 'DAS, KHA CIG GA-YUNG STON RDO RJE DPAL BA 'DAS ZER, T'A
DBEN BLO GROS RGYAL MTSAN SA SKYA'I GDAN SAR 'KHOD,

1377 6) ME SBRUL,

1378 6) SA RTA, GA-YAG SDE PAn CHEN GSHEGS, RJE TZONG KHA PAS SA
SKYAR RJE BTZUN RED MDA' BA LA MNGON PA DANG, RNAM 'GREL GSAN,
SNAR THANG GRAGS PA DON GRUB 'KHRUNGS,

1379 6) SA LUG  MKHAN PO YE SHES BSOD NAMS RGYA MTSOS KUN SPANG
MDZAD NAS RGYAL GYI GDAN SAR KUN SPANG CHEN PO BSOD NAMS RGYAL
MTSAN PHEBS, STAG LUNG CHOS RJE NAM MKHA' DPAL BZANG PO GSHEGS,
'JAM DBYANGS CHOS RJE BKRA SHIS DPAL LDAN DANG, RGYAL BA 'PHAGS
PA LHA 'KHRUNGS,

1380 6) LCAGS SPREL, MKHAN PO YE SHES BSOD NAMS RGYAL MTSAN DANG
LO CHEN BYANG CHUB RTZE MO GSHEGS, SPYAN SNGA BSOD NAMS BZANG PO
'KHRUNGS,

1381 6) LCAGS BYA, 'JAM DBYANGS KUN DGA' RGYAL MTSAN 'KHRUNGS,

1382 6) CHU KHYI, NGOR CHEN KUN DGA' BZANG PO DANG STAG PHU GU
SHR'I DPAL LDAN DON GRUB 'KHRUNGS,

1383 6) CHU PHAG  KARMA ROL PA'I RDO RJE GSHEGS, SPYAN SNGA DPAL
LDAN BZANG PO DANG GUNG RU RGYAL MTSAN BZANG PO GNYIS 'KHRUNGS,

1384 6) SHING BYI, KARMA PA DE BZHIN GSHEGS PA 'KHRUNGS, STAG
LUNG GI MCHOD KHANG DMAR PO BZHENGS,

1385 6) SHING GLANG, BDUD 'JOMS CHOS 'BYUNG SOGS LO RGYUS KHAG
GCIG LTAR NA KAM KAM BRTZON 'GRUS BZANG PO 'KHRUNGS, MKHAS GRUB
CHOS RJE DGE LEGS DPAL BZANG PO 'KHRUNGS,

1386 6) ME STAG  TSES BZHI GSAR MA GSHEGS NAS CHOS RJE BSOD
NAMS GRAGS PA PHAG GRU'I GDAN SAR PHEBS, CHOS RJE NYER GNYIS PA
'KHRUNGS, JO NANG PA PHYOGS LAS RNAM RGYAL 'DAS, DGA' MA MO'I
DGON PA BTAB, RMA SE RTOGS LDAN DANG KU COR RTOGS LDAN GNYIS
'KHRUNGS,

@3243

1387 RAB BYUNG BDUN PA, ME YOS, RJE TZONG KHA PAS SPYAN SNGA
GRAGS PA BYANG CHUB KYI RNAM THAR BRTZAMS,

1388 7) SA 'BRUG  MUS CHEN DKON MCHOG RGYAL MTSAN 'KHRUNGS, RJE
TZONG KHA PAS LEGS BSHAD GSER PHRENG BRTZAMS,

1389 7) SA SBRUL, RJE BLO GROS CHOS SKYONG 'KHRUNGS, KHA CIG YID
BZANG RTZE PA 'KHRUNGS ZER, 'DI LA 'DRA MIN GSUM BYUNG,

1390 7) LCAGS RTA, MKHAN CHEN 'JAM DPAL YE SHES DANG, 'BRUG PA
BLO GROS SENG GE GNYIS GSHEGS, KUN SPANG CHEN PO BSOD NAMS RGYAL
MTSAN PAS RGYAL GYI GDAN SA DBON PO BSOD NAMS GRAGS PA LA GTAD
NAS KUN SPANG MDZAD, RJE TZONG KHA PAS BLA MA DBU MA PA BSTEN,

1391 7) LCAGS LUG  'BA' RA BA DANG 'JAGS CHEN BYAMS PA DPAL
GNYIS GSHEGS, RGYAL BA DGE 'DUN GRUB DANG, SE SPYIL BU BA BSOD
NAMS RGYAL MTSAN GNYIS 'KHRUNGS,

1392 7) CHU SPREL, RJE TZONG KHA PAS 'JAM DBYANGS ZHAL GZIGS,
'KHOR DAG PA RNAMS BRGYAD KHRID DE 'OL KHAR PHEBS, 'BRUG PA SHES
RAB SENG GE GSHEGS, YID BZANG RTZE PA GZHON NU DPAL DANG, SEMS
DPA' CHEN PO BLO GROS RGYAL MTSAN GNYIS 'KHRUNGS,

1393 7) CHU BYA, RJE TZONG KHA PAS 'OL KHAR RDZING PHYI ZHIG GSO
MDZAD,

1394 7) SHING KHYI, T'A DBEN KUN DGA' RIN CHEN SA SKYA'I GDAN
SAR 'KHOD,

1395 7) SHING PHAG  RJE TZONG KHA PAS LHO BRAG GRUB CHEN NAM
MKHA' RGYAL MTSAN BSTEN, SMAD BYANG SEMS CHOS RJE SHES RAB BZANG
PO DANG, BYANG BDAG PO RNAMS RGYAL GRAGS BZANG 'KHRUNGS,

1396 7) ME BYI, RGYAL TSAB DAR MA RIN CHEN GYIS RJE TZONG KHA PA
BSTEN, GNYAL GYI LUNG RA TSUGS, GTER CHEN SANGS RGYAS GLING PA
'DAS, GTER CHEN KUN SKYO GLING PA 'KHRUNGS SAM BRTAG SA SKYA'I
GDUNG RABS RIN CHEN BANG MDZOD LTAR NA BLA MA DAM PA BSOD NAMS
RGYAL MTSAN LO 'DIR 'DAS,

1397 7) ME GLANG, SE SPYIL BU BA RIN CHEN SENG GE 'DAS,

1398 7) SA STAG  RNGOG DON GRUB DPAL GSHEGS, 'BRUG PA NAM MKHA'
DPAL BZANG DANG, DVAGS PO PAn CHEN BKRA SHIS RNAM RGYAL, BDAG
CHEN 'JAM DBYANGS NAM MKHA' RGYAL MTSAN RNAMS 'KHRUNGS,

@3244

1399 7) SA YOS SNAR THANG MKHAN CHEN BSOD NAMS MCHOG GRUB
'KHRUNGS, T'A DBEN KUN DGA' RIN CHEN 'DAS, MING RGYAL RABS KYI
RGYAL PO GNYIS PA JAN WUN KHRIR 'KHOD,

1400 7) LCAGS 'BRUG  'DUL 'DZIN GRAGS PA DPAL LDAN (BLO GROS
SBAS PA YANG ZER) DANG, PAn CHEN BYAMS PA GLING PA BSOD NAMS
RNAM RGYAL GNYIS 'KHRUNGS, DPAL 'DZIN NYI 'OD BZANG POS CHOS
DANG CHOS MIN RNAM PAR DBYE BA'I RAB TU BYED PA BRTZAMS, MKHAS
GRUB RJES BO DONG PAn CHEN RTZOD GLENG GIS PHAM PAR BYAS, LHO
BRAG SMAN THANG DU 'KHRUNGS PA'I LHA BRIS MKHAS PA SMAN BLA DON
GRUB KYIS RGYA BAL GYI RI MO GZHIR BZHAG THOG RIG RTZAL GYI LEGS
CHA DU MAS BRGYAN TE RI MO'I BRIS RGYUN GSAR DU DAR BA LHO BRAG
SMAN BRIS ZHES PA BYUNG,

1401 7) LCAGS SBRUL, LHO BRAG GRUB CHEN NAM MKHA' RGYAL MTSAN
GSHEGS, SNAR THANG GI GDAN SAR KUN DGA' RGYAL MTSAN 'DAS NAS
MKHAN CHEN GRUB PA SHES RAB 'KHOD,

1402 7) CHU RTA, BA SO CHOS KYI RGYAL MTSAN DANG, RJE DVAGS PO
BLO GROS BRTAN PA, 'DUL NAG PA DPAL LDAN BZANG PO GSUM 'KHRUNGS,
SGAM PO BA SANGS RGYAS CHOS KYI SENG GE GSHEGS, RJE TZONG KHA
PAS RVA SGRENG DU LAM RIM CHEN MO BRTZAMS, SPYAN SNGA BLO GROS
RGYAL MTSAN 'KHRUNGS,

1403 7) CHU LUG  STAG LUNG CHOS RJE BYANG CHUB RGYA MTSO DANG,
GTER STON RATNA GLING PA GNYIS 'KHRUNGS, MING RGYAL RABS KYI
RGYAL PO GSUM PA YUNG LO KHRIR 'KHOD, RJE TZONG KHA PAS BYANG
SA'I TSUL KHRIMS LE'U DANG BLA MA LNGA BCU PA, RTZA LTUNG BCU
BZHI PA BCAS KYI RNAM BSHAD BRTZAMS,

1404 7) SHING SPREL, LHA GRAGS PA 'OD GSHEGS NAS LHA BSOD NAMS
'OD ZER GA-YA' BZANG GI GDAN SAR PHEBS, SA SGANG RNAM RGYAL
GLING BTAB, ZHANG ZHUNG CHOS DBANG GRAGS PA 'KHRUNGS,

1405 7) SHING BYA, MKHAN CHEN GRUB PA SHES RAB PA'I DRUNG DU DGE
'DUN GRUB RAB TU BYUNG, MKHAS GRUB RJE BSNYEN PAR RDZOGS, ZHVA
DMAR RTOGS LDAN MKHA' SPYOD DBANG PO GSHEGS, CHOS RJE BSOD NAMS
GRAGS PAS SPYAN SNGA DPAL LDAN BZANG PO LA PHAG GRU'I GDAN SA
GTAD, RJE TZONG KHA PAS SNGAGS RIM CHEN MO BRTZAMS, STAG TSANG
LO TZ'A BA SHES RAB RIN CHEN 'KHRUNGS, GTER STON RDO RJE GLING
PA 'DAS,

1406 7) ME KHYI, ZHVA DMAR CHOS DPAL YE SHES 'KHRUNGS,

1407 7) ME PHAG  CHOS RJE MKHAS GRUB PA RJE TZONG KHA PA DANG
MJAL, SPYAN SNGA DPAL LDAN BZANG PO GSHEGS, KARMA PA T'A MING
GIS SPYAN DRANGS, RJE TZONG KHA PAS DRANG

@3245

NGES LEGS BSHAD SNYING PO DANG, RTZA SHE'I t'IKA CHEN BRTZAMS,

1408 7) SA BYI, CHOS RJE BSOD NAMS GRAGS PA DANG, GRUB THOB SHER
'BYUNG BA GSHEGS, SPYAN SNGA BSOD NAMS BZANG PO PHAG GRU'I GDAN
SAR PHEBS, RJE BKRA SHIS DPAL 'OD 'KHRUNGS, BYAMS CHEN CHOS RJE
T'A MING RGYAL POS SPYAN DRANGS, GTER STON RIG 'DZIN RGOD LDEM
GSHEGS, RJE TZONG KHA PAS LHA SAR ZHIG GSO BYAS, BDAG CHEN ZHVA
LU BA BSOD RGYAL 'KHRUNGS,

1409 7) SA GLANG, RJE TZONG KHA PAS LHA SA SMON LAM CHEN MO
DANG, 'BROG RI BO DGA' LDAN BTAB, KUN SPANG CHEN PO BSOD NAMS
RGYAL MTSAN GSHEGS, SE SPYIL BU BA DPAL BZANG 'KHRUNGS, RI RTZA
GRAGS PA BKRA SHIS 'DAS,

1410 7) LCAGS STAG  PAn CHEN BZANG PO BKRA SHIS 'KHRUNGS, GRUB
PA SHES RAB PA'I DRUNG DU DGE 'DUN GRUB PA BSNYEN PAR RDZOGS,
RJE TZONG KHA PAS BSHAD RGYUD LHA MO BZHES ZHUS DANG, YE SHES
RDO RJE KUN LAS BTUS KYI RNAM BSHAD BRTZAMS, SE SPYIL BU BA
SH'AKYA BSOD NAMS SNGA MA 'DAS, RI BO CHE CHOS RJE MI GA-YO MGON
PO 'KHRUNGS,

1411 7) LCAGS YOS, BYAMS CHEN RAB 'BYAMS PA SANGS RGYAS 'PHEL
'KHRUNGS, RJE TZONG KHA PAS RIM LNGA GSAL SGRON BRTZAMS, 'DI
LO'I ZLA BA DGU PA'I TSES BCU GCIG NAS TSES BCO LNGA BAR SA
GA-YOS HA CANG CHEN PO BYUNG,

1412 7) CHU 'BRUG  RJE RED MDA' BA GSHEGS,

1413 7) CHU SBRUL, 'BRUG YE SHES RIN CHEN GSHEGS, SEMS DPA' BLO
GROS RGYAL MTSAN 'KHRUNGS, KHA CIG YID BZANG RTZE PA 'KHRUNGS
ZER,

1414 7) SHING RTA, LHO RIN PO CHE GRAGS PA YON TAN GSHEGS, CHOS
RJE SMON LAM DPAL BA DANG, GA-YAG PHRUG PA SANGS RGYAS DPAL
GNYIS 'KHRUNGS, TZONG KHA PA DANG DGE 'DUN GRUB MJAL, 'GREL PA
BZHI SBRAGS BRTZAMS, CHEN PO BLO GROS 'PHEL GYIS RTZED THANG
LNGA MCHOD DGON PA BTAB,

1415 7) SHING LUG  KARMA PA DE BZHIN GSHEGS PA GSHEGS, BYANG
SEMS SHES RAB BZANG PO DBUS SU BYON, RJE TZONG KHA PAS DGA' LDAN
YANGS PA CAN BTAB, LAM RIM 'BRING PO BRTZAMS,

1416 7) ME SPREL, KARMA PA MTHONG BA DON LDAN DANG, SGAM PO BSOD
NAMS RIN CHEN, RTOGS LDAN BYANG CHUB BZANG PO GSUM 'KHRUNGS,
SPYAN SNGA BSOD NAMS BZANG PO GSHEGS, 'JAM DBYANGS CHOS RJES
DPAL LDAN 'BRAS SPUNGS BTAB,

@3246

1417 7) ME BYA, KAM KAM PA SPYAN SNGA DON GRUB DPAL BAS CHOS
'BYUNG BSTAN PA RIN PO CHE'I GSAL BYED BRTZAMS, CHOS RJE NYER
GNYIS PA PHAG GRU'I GDAN SAR PHEBS, GTZANG GI KHYUNG PO BYA BRAL
DGE 'DUN BZANG PO 'KHRUNGS, RJE TZONG KHA PAS YANGS PA CAN GYI
RTEN RNAMS BZHENGS, KHA CIG LO 'DIR GTER STON RATNA GLING PAS
KHYUNG TSANG BRAG GI GTER BTON ZER,

1418 7) SA KHYI, STAG LUNG PA NGAG DBANG GRAGS PA DPAL BZANG PO
'KHRUNGS, BYAMS CHEN CHOS RJE SLAR YANG BOD DU LOG 'GREL PA BZHI
SBRAGS PAR DU BRKO BA'I 'GO BRTZAMS, BLA CHEN KUN DGA' RGYAL
MTSAN 'DAS, MKHAN CHEN BSOD NAMS MCHOG GRUB SNAR THANG GDAN SAR
'KHOD, RGYAL RTZE CHOS RGYAL RAB BRTAN PA DANG MKHAS GRUB RJES
DPAL 'KHOR CHOS SDE BTAB,

1419 7) SA PHAG  RJE RIN PO CHE ZHI BAR GSHEGS, RGYAL TSAB DAR
MA RIN CHEN KHRIR PHEBS, RGYUD STOD 'DEBS PO KUN DGA' DON GRUB
'KHRUNGS, BYAMS CHEN CHOS RJES SE RA THEG CHEN GLING BTAB,

1420 7) LCAGS BYI, T'A DBEN GU SHR'I BLO GROS RGYAL MTSAN 'DAS,

1421 7) LCAGS GLANG, GSANG SNGAGS MKHAR BTAB, SNAR THANG PA
SHES RAB RGYAL MTSAN 'KHRUNGS, 'JAM DBYANGS NAM MKHA' RGYAL
MTSAN SA SKYA'I KHRIR 'KHOD,

1422 7) CHU STAG  GRAGS PA RIN CHEN GSER YIG PAS PO TO'I DGON
BTAB,

1423 7) CHU YOS, 'BA' RA BA'I SLOB MA GTZANG PA BKRA SHIS DPAL
BRTZEGS, BLO GROS BZANG PO, SGAM PO CHOS KYI DBANG PHYUG RNAMS
GSHEGS, MKHAS GRUB NOR BZANG RGYA MTSO 'KHRUNGS,

1424 7) SHING 'BRUG  CHOS RJE BYANG CHUB RGYA MTSO STAG LUNG GI
GDAN SAR PHEBS, BYAMS CHEN CHOS RJE SLAR YANG T'A MING YUNG LO
RGYAL POS GDAN DRANGS, LO TZ'A BA BSOD NAMS RGYA MTSO 'KHRUNGS,
STAG LUNG BKRA SHIS DPAL BRTZEGS 'DAS,

1425 7) SHING SBRUL, 'BRUG PA NAM MKHA' DPAL GSHEGS, MTSUR PHU
BAS BYED RTZIS KYI 'GO BRTZAMS, MING RGYAL RABS KYI RGYAL PO
BZHI PA HUNG ZHI RGYAL SAR 'KHOD,

1426 7) ME RTA, LHA BSOD NAMS 'OD ZER GSHEGS, BYANG SEMS SHES
RAB BZANG PO CHAB MDOR PHEBS, PAn CHEN NAGS KYI RIN CHEN BOD DU
THOG MAR 'BYOR, MING RGYAL RABS KYI RGYAL PO LNGA PA ZHON TE
RGYAL SAR 'KHOD,

1427 7) ME LUG  SHAR BA RIN CHEN RGYAL MTSAN GSHEGS, SPYAN SNGA
BSOD NAMS 'OD MDZES GA-YA' BZANG GDAN SAR PHEBS, RJE DRUNG SHES
RAB DPAL BRTZEGS DANG,

@3247

GNYAL STON DPAL 'BYOR LHUN GRUB GNYIS 'KHRUNGS, MKHAS GRUB CHOS
RJE DANG RONG STON PA RTZOD GLENG BYUNG, RGYAL RTZE'I MCHOD RTEN
CHEN MO BZHENGS,

1428 7) SA SPREL, RTOGS LDAN 'JAM DPAL RGYA MTSO GSHEGS, 'BRUG
PA RGYAL DBANG CHOS RJE, PAn CHEN SH'AKYA MCHOG LDAN, SKYO MDA'
CHOS RJE BLO GROS BZANG PO GSUM 'KHRUNGS,

1429 7) SA BYA, 'DAR STON BLO BZANG GRAGS PA, 'JAM DBYANGS DGA'
BA'I BLO GROS, GO BO RAB 'BYAMS PA BSOD NAMS SENG GE, RTZE PA
SHER BZANG BZHI 'KHRUNGS, MTSUR PHU BAS GRUB RTZIS GZA' GNAS
DRUG PA'I 'GO BRTZAMS, NGOR KUN DGA' BZANG POS NGOR AE WAM CHOS
LDAN GYI DGON PA BTAB,

1430 7) LCAGS KHYI, CHOS RJE BYANG CHUB RGYA MTSO KUN SPANG
MDZAD NAS BKRA SHIS DPAL 'OD STAG LUNG GDAN SAR PHEBS, DGE 'DUN
GRUB KYIS 'JUG t'IKA BRTZAMS, SE SPYIL BU BA BSOD NAMS RGYAL
MTSAN 'DAS, RI BO CHE MGON PO YE SHES 'KHRUNGS,

1431 7) LCAGS PHAG  SANGS RGYAS RIN CHEN RGYAL MTSAN DPAL BZANG
PO GSHEGS, MKHAS GRUB RJE KHRIR PHEBS, SA SKYA PA 'BUM PHRAG
GSUM PA 'KHRUNGS, LO 'DIR RGYAL TSAB DAR MA RIN CHEN ZUR BZHUGS
MDZAD, MKHAS GRUB RJE DGA' LDAN KHRIR 'KHOD,

1432 7) CHU BYI, RGYAL TSAB CHOS RJE DAR MA RIN CHEN GSHEGS, DGE
'DUN GRUB KYIS RNAM 'GREL t'IKA CHUNG BRTZAMS, RATNA GLING PAS
KHYUNG TSANG BRAG NAS GTER DANG PO RNAMS BTON,

1433 7) CHU GLANG, RJE SHES RAB SENG GES SMAD RGYUD BTZUGS, PAn
CHEN YE SHES RTZE MO DANG, 'JAM DBYANGS KUN DGA' CHOS BZANG
GNYIS 'KHRUNGS, MKHA' SPYOD PA GSHEGS, DGE 'DUN GRUB KYIS RTZA
SHE'I t'IKA MDZAD, SMYUNG GNAS PA BSOD NAMS BZANG PO 'DAS,

1434 7) SHING STAG  CHOS RJE NYER GNYIS PA BSOD NAMS RGYAL MTSAN
GSHEGS NAS PHAG GRU'I GDAN SA LO NYI SHUS STONGS, 'DUL 'DZIN
GRAGS PA RGYAL MTSAN GSHEGS, MKHAS GRUB RJES DUS 'KHOR 'GREL
CHEN DRI MED 'OD BRTZAMS,

1435 7) SHING YOS, MKHAS GRUB NOR BZANG RGYA MTSO RAB TU BYUNG,
RIN SPUNGS NOR BU BZANG POS PHAG GRUR NGO LOG BYAS TE GZHIS KA
BSAM 'GRUB RTZE SOGS GZHUNG PHAL CHER GYI SRID DBANG BZUNG, 'DI
NAS PHAG GRU'I SRID DBANG 'THOR 'GO TSUGS, BYAMS CHEN CHOS RJE
BOD DU LOG PA'I LAM BAR DU 'DAS, KUN MKHYEN RONG STON PAS 'PHAN
PO NA LENDRA'I DGON PA BTAB,

@3248

1436 7) ME 'BRUG  MUS CHEN DKON MCHOG RGYAL MTSAN GYIS STAG MO
GLING KHA BTAB, BDAG CHEN RGYA DKAR BA SHES RAB RGYAL MTSAN
DANG, BDAG CHEN BLO GROS RGYAL MTSAN 'KHRUNGS, MING RGYAL RABS
KYI RGYAL PO DRUG PA tING THUNG RGYAL SAR 'KHOD,

1437 7) ME SBRUL, DGE 'DUN GRUB KYIS TSAD MA RIGS RGYAN MDZAD,

1438 7) SA RTA, MKHAS GRUB CHOS RJE DGE LEGS DPAL BZANG PO
GSHEGS, DGE 'DUN GRUB PA DBUS SU PHEBS, 'JAM DBYANGS GZHON NU
'KHRUNGS,

1439 7) SA LUG  ZUR MKHAR MNYAM NYID RDO RJE DANG RGYAL BA
'PHAGS PA LHA 'KHRUNGS,

1440 7) LCAGS SPREL, DGE 'DUN GRUB SHES RAB SENG GE DANG LHAN DU
SLAR GTZANG LA PHEBS, DGE 'DUN GRUB PAS 'DUL BA'I GLING 'BUM
DANG, SO THAR GYI t'IKA BRTZAMS,

1441 7) LCAGS BYA, RTZIS GZHUNG NYIN SNANG LAS ZHA LU LO CHEN
CHOS SKYONG BZANG PO 'KHRUNGS PAR BSHAD,

1442 7) CHU KHYI, BYANG SEMS RVA SGRENG PA SHAG BSOD 'DAS,

1443 7) CHU PHAG  THON PA MKHAS BTZUN YON TAN RGYA MTSO 'KHUNGS,
DGE 'DUN GRUB KYIS BCA' YIG CHEN MO BRTZAMS, YID BZANG RTZE PAS
RTZIS KYI BSTAN BCOS 'KHRUL SEL BRTZAMS,

1444 7) SHING BYI, BYANG SEMS SHES RAB BZANG POS CHAB MDO BYAMS
PA GLING BTAB, BDAG CHEN BLO GROS RGYAL MTSAN 'KHRUNGS, BYANG
SEMS KUN DGA' BZANG PO GSHEGS, ZHA LU'I RNAM THAR LTAR NA LO
'DIR ZHA LU LO CHEN CHOS SKYONG BZANG PO 'KHRUNGS,

1445 7) SHING GLANG, SE RA DON YOD DPAL LDAN 'KHRUNGS, RJE SHES
RAB SENG GE DANG KU COR RTOGS LDAN GSHEGS, SMAD RGYUD KYI GDAN
SA RGYUD CHEN SBYIN PA DPAL GYIS BSKYANGS,

1446 7) ME STAG  RNGOG BYANG CHUB DPAL DANG, GNAS SNYING RIN PO
CHE KUN DGA' BDE LEGS, RGYUD STOD SLOB DPON LHA RI BA, LHA DBANG
DPAL 'BYOR RNAMS 'KHRUNGS, RIN CHEN RGYAL MTSAN DPAL BZANG PO
'KHRUNGS,

1447 RAB BYUNG BRGYAD PA, ME YOS, DGE 'DUN GRUB PAS BKRA SHIS
LHUN PO BTAB, GRA PHUG PA LHUN GRUB RGYA MTSOS PAD DKAR ZHAL
LUNG MDZAD, HOR STON NAM MKHA' DPAL BA GSHEd, CHAG LO RIN CHEN
CHOS RGYAL 'KHRUNGS,

1448 8) SA 'BRUG  STAG LUNG CHOS RJE BYANG CHUB RGYA MTSO
GSHEGS, GRUB CHEN THANG STONG RGYAL POS SDE DGE DGON CHEN GYI
RMANG GZHI PHYAG BTAB,

1449 8) SA SBRUL, 'JAM DBYANGS CHOS RJE GSHEGS, KUN MKHYEN RONG
STON GSHEGS, RDO RING

@3249

PA KUN BZANG CHOS KYI NYI MA 'KHRUNGS, RAB 'BYAMS PA SANGS RGYAS
'PHEL GYIS 'BRAS YUL SKYED TSAL BTAB, DVAGS PO RAB 'BYAMS PA
CHOS RGYAL BSTAN PA BTZAS,

1450 8) LCAGS RTA, ZHA LU BA LEGS PA RGYAL MTSAN DANG, GUNG RU
RGYAL MTSAN BZANG PO GSHEd, BLO GROS CHOS SKYONG DGA' LDAN GYI
KHRIR PHEBS, SHES RAB DAR LEGS PA'I BLO GROS 'KHRUNGS, AO RGYAN
PADMA GLING PA 'KHRUNGS, MING RGYAL RABS KYI RGYAL PO BDUN PA
CING THE RGYAL SAR 'KHOD,

1451 8) LCAGS LUG  RJE DRUNG KUN DGA' DPAL PA DANG, SGAM PO
GRAGS PA RGYAL MTSAN SGAM SMYON DU 'BOD PA GNYIS 'KHRUNGS, STENG
CHEN DGON BTAB, BO DONG PAn CHEN PHYOGS LAS RNAM RGYAL 'DAS,

1452 8) CHU SPREL, ZHVA DMAR CHOS DPAL YE SHES, SPYAN SNGA BSOD
NAMS 'OD MDZES, MKHAN CHEN BSOD NAMS MCHOG GRUB RNAMS GSHEGS,
GTZANG SMYON HE:RU KA 'KHRUNGS,

1453 8) CHU BYA, KARMA PA MTHONG BA DON LDAN DANG, CHOS RJE RI
MI 'BAB PA GNYIS GSHEGS, ZHVA DMAR CHOS KYI GRAGS PA DANG ZHAL
SNGA NAS DHARMA MI TRA DANG, RIN PO CHE 'OD ZER RNAMS 'KHRUNGS,
PAn CHEN NAGS KYI RIN CHEN BOD DU BYON PA'I THENGS GNYIS PA YIN,

1454 8) SHING KHYI, KARMA CHOS GRAGS RGYA MTSO DANG, SGAM PO
BSOD NAMS RGYAL MTSAN GNYIS 'KHRUNGS, SNE GDONG GI SRID KHRIR
RJE RIN PO CHE NGAG GI DBANG PO PHEBS, SPYAN SNGA RDO RJE RGYAL
MTSAN GA-YA' BZANG GI GDAN SAR PHEBS, CHOS RJE MI GA-YO MGON PO
'DAS, CHOS RJE 'JIG RTEN DBANG PHYUG 'KHRUNGS, CHOS RJE MGON PO
YE SHES RI BO CHE'I KHRIR 'KHOD,

1455 8) SHING PHAG  SPYAN SNGA YON TAN RGYAL MTSAN RGYAL GYI
GDAN SAR PHEBS, DPA' BO CHOS DBANG LHUN GRUB 'KHRUNGS, 'BRUG PA
KUN LEGS 'KHRUNGS,

1456 8) ME BYI, KARMA 'PHRIN LAS PA 'KHRUNGS, NGOR PA RDO RJE
'CHANG KUN DGA' BZANG PO GSHEGS,

1457 8) ME GLANG, BYANG SEMS CHOS RJE SHES RAB BZANG PO GSHEGS,
RJE DRUNG KUN DGA' DPAL LDAN DANG, MNYAN PA GRUB THOB GNYIS SKU
'KHRUNGS, MING RGYAL RABS KYI RGYAL PO BRGYAD PA THEN HRUN KHRIR
'KHOD,

1458 8) SA STAG  ZHANG ZHUNG PA CHOS DBANG GRAGS PA CHAB MDO'I
KHRIR PHEBS, RGYUD STOD DPON SLOB CHOS LDAN BLO GROS DANG, GNYUG
LA PAn CHEN DBUS SMYON KUN DGA' BZANG PO RNAMS 'KHRUNGS, DVAGS
PO PAn CHEN BKRA SHIS RNAM RGYAL GSHEGS,

@3250

DBUS LHO BYANG NANG 'KHRUG BYUNG NAS PHAG GRU'I GDAN SA SNE
GDONG PAS BZUNG 'GO TSUGS, KHA CIG GIS 'PHRENG PO GTER STON SHES
RAB 'OD ZER 'KHRUNGS PAR BSHAD,

1459 8) SA YOS, MKHAS GRUB NOR BZANG RGYA MTSO 'OL KHAR PHEBS,

1460 8) LCAGS 'BRUG  CHOS RJE BKRA SHIS 'OD GSHEGS NAS NGAG
DBANG GRAGS PA DPAL BZANG PO STAG LUNG GI GDAN SAR PHEBS,

1461 8) LCAGS SBRUL, STAG LUNG CHOS RJE BKRA SHIS DPAL RJES MA
'KHRUNGS,

1462 8) CHU RTA,

1463 8) CHU LUG  BLO GROS CHOS SKYONG GSHEGS NAS BA SO CHOS KYI
RGYAL MTSAN DGA' LDAN GYI KHRIR PHEBS, MTSUR STON NAM MKHA' DPAL
PA CHAB MDO'I KHRIR PHEBS, BKRA SHIS LHUN POR BYAMS CHEN GRUB,

1464 8) SHING SPREL, BKRA SHIS LHUN POR RJE DGE 'DUN GRUB PAS
BKA' 'GYUR BZHENGS, THON MI KUN DGA' RNAM RGYAL GYIS GONG DKAR
CHOS SDE'I DGON BTAB,

1465 8) SHING BYA, SKYO MDA' CHOS RJE BLO GROS BZANG POS SKYO
MDA' BTAB, MING RGYAL RABS KYI RGYAL PO DGU PA KHRENG HVA RGYAL
SAR 'KHOD,

1466 8) ME KHYI, SGAM PO BSOD NAMS RIN CHEN 'DAS, NYI STENG DGON
DANG, SE RAG DGON BTAB, STAG PHU GU SHR'I DPAL LDAN DON GRUB
DANG, LO CHUNG DKA' BZHI PA 'DAS, BDAG CHEN BLO GROS RGYAL MTSAN
SA SKYA'I KHRIR 'KHOD,

1467 8) ME PHAG  SNAR THANG PA GRAGS PA DON GRUB 'DAS,

1468 8) SA BYI, RJE DGE 'DUN GRUB PAS STON PA'I GOS SKU BZHENGS,
PAn CHEN NAGS KYI RIN CHEN BAL YUL DU 'DAS,

1469 8) SA GLANG, ZHANG ZHUNG CHOS DBANG GRAGS PA 'DAS, SE RA
LRJE BTZUN CHOS KYI RGYAL MTSAN 'KHRUNGS, MUS CHEN DKON CHOG
RGYAL MTSAN 'DAS, RJE DGE 'DUN GRUB PAS 'DUL t'IKA RIN CHEN
PHRENG BA BRTZAMS, CHEN PO SHAG MCHOG PAS GSER MDOG CAN GYI DGON
PA BTAB, STAG LUNG ZHABS DRUNG RNAM RGYAL GRAGS PA 'KHRUNGS,

1470 8) LCAGS STAG  DE MO THANG PA SEMS DPA' CHEN PO BLO GROS
RGYAL MTSAN GSHEGS,

1471 8) LCAGS YOS, RJE DRUNG SHES RAB DPAL BRTZEGS CHAB MDO'I
KHRIR PHEBS, SEMS DPA' SPRUL SKU SMON LAM BLO GROS 'KHRUNGS,

1472 8) CHU 'BRUG  THU MI LHUN GRUB BKRA SHIS KYIS GRVA NANG
BYAMS PA GLING BTAB, BDAG CHEN

@3251

'JAM DBYANGS NAM MKHA' RGYAL MTSAN 'DAS, STAG LUNG CHOS RJE BSOD
NAMS DPAL BZANG 'KHRUNGS, SNAR THANG GI GDAN SAR SHES RAB RGYAL
MTSAN 'KHOD, SPYAN SNGA BLO GROS RGYAL MTSAN CHE BA 'DAS,

1473 8) CHU SBRUL, RJE BLO GROS BSTAN PA KHRIR PHEBS, GYA RA
CHOS SKYONG RGYA MTSO DANG, CHOS RJE RGYAL MTSAN DPAL BZANG PO
'KHRUNGS, NGAG DBANG GRAGS PA DPAL BZANG POS CHOS RJE BKRA SHIS
DPAL PA STAG LUNG GDAN SAR BKOD NAS KUN SPANG MDZAD, SPYAN SNGA
RDO RJE RGYAL MTSAN DANG, BA SO CHOS RJE GNYIS GSHEGS, GO BO RAB
'BYAMS PA BSOD NAMS SENG GES RTA NAG THUB BSTAN RNAM RGYAL BTAB,

1474 8) SHING RTA, KUN DGA' DON GRUB KYIS RGYUD STOD GRVA TSANG
BTZUGS, RJE DGE 'DUN GRUB PA GSHEGS, DUL MO BKRA SHIS 'OD ZER
'KHRUNGS, PAn CHEN BZANG PO BKRA SHIS BKRA SHIS LHUN PO'I GDAN
SAR 'KHOD, RNYING MA SH'AKYA RGYAL MTSAN 'DAS,

1475 8) SHING LUG BLO GROS SBAS PA GSHEGS, ZUR MNGAS BDE CHEN
RTZE'I SGRUB SDE BTAB, SGAM PO BSOD NAMS RGYA MTSO 'KHRUNGS,
BYAMS PA GLING PA BSOD NAMS RNAM RGYAL DANG, BYANG BDAG PO RNAM
RGYAL GRAGS BZANG, ZUR MKHAR BA MNYAM NYID RDO RJE RNAMS 'DAS,

1476 8) ME SPREL, RJE THAMS CAD MKHYEN PA DGE 'DUN RGYA MTSO
DANG, STONG 'KHOR ZLA BA RGYAL MTSAN GNYIS 'KHRUNGS, 'BRUG PA
RGYAL DBANG CHOS RJE GSHEGS, 'GOS LO GZHON NU DPAL GYIS DEB
SNGON BRTZAMS 'GO TSUGS, GTER STON RATNA GLING PA 'DAS, CHAG LO
RIN CHEN CHOS RGYAL GYIS DAG YIG LI SHI'I GUR KHANG BRTZAMS,

1477 8) ME BYA, SGO RUM PA KUN DGA' LEGS PA'I BLO GROS 'KHRUNGS,

1478 8) SA KHYI, BLO GROS BSTAN PA DANG, PAn CHEN BZANG PO BKRA
SHIS GNYIS GSHEGS, PAn CHEN LUNG RIGS RGYA MTSO BKRA SHIS LHUN
PO'I GDAN SAR PHEBS, GO BO RAB 'BYOR PAS KARMA THUB CHEN GDAN SA
BTAB, 'GA' ZHIG GIS GTER STON RATNA GLING PA 'DAS ZER,

1479 8) SA PHAG 'BRI GUNG BRA BA KHA'I DGON PA BTAB, ZUR MANG
BYA BTANG 'KHRUNGS, SHAR RTZE DANG BYANG RTZE'I BAR RTZOD GLENG
BYUNG,

1480 8) LCAGS BYI, CHOS RJE SMON LAM DPAL PA KHRIR PHEBS, RIN
SPUNGS DON YOD RDO RJES SNE GDONG RDZONG LA DMAG DRANGS TE
RDZONG BZUNG,

@3252

1481 8) LCAGS GLANG, 'GOS LO YID BZANG RTZE PA GSHEGS, GNYAL
STON DPAL 'BYOR LHUN GRUB SE RA'I KHRIR PHEBS, SE RA RJE BTZUN
PA BKRA SHIS LHUN POR SLOB GNYER LA ZHUGS, ZHVA DMAR BAS GTZANG
DMAG DBUS SU DRANGS,

1482 8) CHU STAG RIN SPUNGS NGAG DBANG 'JIGS GRAGS 'KHRUNGS,
KHRIMS KHANG LO TZ'A BA BSOD NAMS RGYA MTSO 'DAS,

1483 8) CHU YOS, RJE DRUNG KUN DGA' BLO GROS 'KHRUNGS, MKHAS
GRUB NOR BZANG RGYA MTSOS DRI MED 'OD RGYAN BRTZAMS,  

1484 8) SHING 'BRUG ZHO KHA KONG 'PHRANG, PHAG GRUM, TSAL SOGS
SGRUB SDE RNAMS BTAB,

1485 8) SHING SBRUL, BYAMS CHEN RAB 'BYAMS PA GSHEGS, THANG
STONG RGYAL PO'I RNAM THAR LTAR NA LO 'DIR THANG STONG RGYAL PO
'DAS,

1486 8) ME RTA, SNGAGS RAM PA DGE 'DUN BKRA SHIS 'KHRUNGS, RGYUD
PA KUN DGA' DON GRUB GSHEGS, PAn CHEN YE SHES RTZE MO BKRA SHIS
LHUN PO'I GDAN SAR PHEBS, RJE DGE 'DUN RGYA MTSO RAB TU BYUNG,

1487 8) ME LUG RGYAL BA 'PHAGS PA LHA GSHEGS, RGYAL TSAB BKRA
SHIS RNAM RGYAL DANG, MNGA' RIS PAn CHEN PAD MA DBANG RGYAL
'KHRUNGS,

1488 8) SA SPREL, DGA' MA MO'I GTZUG LAG KHANG BZHENGS, SGAM PO
BSOD NAMS RGYAL MTSAN GSHEGS, SGAM PO BSOD NAMS LHUN GRUB
'KHRUNGS, MING RGYAL RABS KYI RGYAL PO BCU PA HUNG tI RGYAL SAR
'KHOD,

1489 8) SA BYA, GO BO RAB 'BYAMS PA GSHEGS, ZHA LU LO TZ'A BA
PHYI MA RIN CHEN BZANG PO 'KHRUNGS, SA SKYA 'BUM PHRAG GSUM PAS
BYA RGOD GSHONG CHOS SDE BTAB, RGOD TSANG PA MGON PO RDO RJE
'KHRUNGS,

1490 8) LCAGS KHYI, RJE DBON BLO BZANG NYI MA KHRIR PHEBS, MUS
PA RAB 'BYAMS PA THUGS RJE DPAL GYIS YANGS PA CAN BTAB,

1491 8) LCAGS PHAG SMON LAM DPAL LEGS PA'I BLO GROS DANG, SEMS
DPA' CHEN PO BLO GROS RGYAL MTSAN GNYIS GSHEGS, CHOS RJE MI NYAG
RDO RJE BZANG PO 'KHRUNGS,

1492 8) CHU BYI, RJE DBON BLO BZANG NYI MA GSHEGS, SE RA RJE
BTZUN PA DBUS SU 'BYOR,

1493 8) CHU GLANG, ZHVA DMAR PAS GDAN SA MTHIL GYI KHUR BZHES,
GSER MDOG NOR BZANG PAS CHOS GLING BTAB, CHOS RJE 'DAN MA YE
SHES BZANG PO KHRIR PHEBS, STAG PHU BA CHOS GRAGS BZANG PO DANG,
CHOS RJE DGE 'DUN BSTAN PA DAR RGYAS GNYIS 'KHRUNGS,

@3253

1494 8) SHING STAG YE SHES RTZE MOS THAMS CAD MKHYEN PA DGE 'DUN
GRUB KYI RNAM THAR BRTZAMS, SA CHEN KUN DGA' RGYAL MTSAN GYIS
BKA' GDAMS CHOS 'BYUNG MDZAD,

1495 8) SHING YOS, RGYAL BA DGE 'DUN RGYA MTSO GNAS RNYING KUN
DGA' BDE LEGS LAS BSNYEN PAR RDZOGS, BDAG CHEN BLO GROS RGYAL
MTSAN DANG, KHYUNG PO BYA BRAL GNYIS GSHEGS, LO 'DIR GTZANG
SMYON GYIS MI LA'I RNAM THAR BRTZAMS, KHA CIG JO NANG KUN DGA'
GROL MCHOG 'KHRUNGS PAR 'DOD,

1496 8) ME 'BRUG GNAS RNYING BA KUN DGA' BDE LEGS GSHEGS, TZA RI
GSAR MA BKRA SHIS RDZONG GI GNAS SGO PHYE,

1497 8) ME SBRUL, RJE DRUNG MI GA-YO SNYING PO DANG, KHRI PA
RGYAL MTSAN BZANG PO GNYIS 'KHRUNGS,

1498 8) SA RTA, KHRI PA YE SHES BZANG PO GSHEGS, 'DI NAS LO BCU
DGU'I RING LHA SA SMON LAM CHEN MOR SE 'BRAS DGA' GSUM MA TSUD
PAR DGON PA GZHAN DAG GIS BYAS, AE'I LHA DGRA LAS RNAM RGYAL
'DAS,

1499 8) SA LUG MNYAN PA GRUB THOB PAS AO RGYAN RI KHROD SOGS
BTAB,

1500 8) LCAGS SPREL, RGYAL BA DGE 'DUN RGYA MTSOS DRANG NGES
RNAM 'BYED KYI DKA' 'GREL BRTZAMS, 'DAR STON PA DGA' LDAN GYI
KHRIR PHEBS, PAn CHEN MCHOG LHA 'OD ZER 'DAS,

1501 8) LCAGS BYA, KHRI PA NGAG DBANG CHOS GRAGS 'KHRUNGS, STAG
LUNG RNAM RGYAL GRAGS PA KUN SPANG BYAS NAS STAG LUNG GI GDAN SA
BSOD NAMS DPAL GYIS BYAS,

1502 8) CHU KHYI, RJE DRUNG 'JAM DBYANGS BSHES GNYEN DANG, TSAR
CHEN BLO GSAL RGYA MTSO GNYIS 'KHRUNGS, SGAM SMYON GRAGS PA
RGYAL MTSAN GSHEGS,

1503 8) CHU PHAG 'JAM DBYANGS DGA' BLO DANG, DPA' BO CHOS DBANG
LHUN GRUB, 'JAM DBYANGS KUN DGA' CHOS BZANG RNAMS GSHEGS, ZHVA
DMAR PA BZHI PAS YANGS PA CAN GYI DGON DANG, LHA SAR THUB BSTAN
CHOS 'KHOR BTAB,

1504 8) SHING BYI, DPA' BO GTZUG LAG PHRENG BA 'KHRUNGS, 'GA'
ZHIG GIS DBEN SA PA BSOD NAMS PHYOGS GLANG 'DAS ZER, SA SKYA PA
'BUM PHRAG GSUM PA 'DAS, THON PA MKHAS BTZUN YON TAN RGYA MTSO
'BRAS SPUNGS KYI GDAN SAR 'KHOD,

1505 8) SHING GLANG, RGYAL BA BLO BZANG DON GRUB DANG, MKHAN
CHEN BLO GROS PHYOGS LAS RNAM RGYAL, CHOS RJE BDE BA CAN PA DGE
LEGS DPAL BZANG RNAMS 'KHRUNGS,

1506 8) ME STAG MING RGYAL RABS KYI RGYAL PO BCU GCIG PA tING TE
RGYAL SAR 'KHOD, DRAN MCHOG KUN DGA' RGYAL MTSAN DANG, KARMA
CHOS GRAGS RGYA MTSO 'DAS,

@3254

1507 RAB BYUNG DGU PA, ME YOS, RJE DRUNG SHES RAB DPAL BRTZEGS
DANG, SHAG MCHOG PA GNYIS GSHEGS, RJE DRUNG KUN DGA' DPAL CHAB
MDO'I KHRIR PHEBS, KARMA PA MI BSKYOD RDO RJE DANG, 'PHAGS PA
SANGS RGYAS GNYIS 'KHRUNGS, GTZANG SMYON HE:RU KA 'DAS,

1508 9) SA 'BRUG STAG LUNG PA BKRA SHIS DPAL PHYI MA 'DAS,

1509 9) SA SBRUL, RGYAL BA DGE 'DUN RGYA MTSOS RGYAL ME TOG
THANG BTAB, 'BRI GUNG RGYAL DBANG RIN CHEN PHUN TSOGS 'KHRUNGS,
'JAM DBYANGS GZHON NU GSHEGS, SA SKYA SNGAGS 'CHANG NGAG DBANG
BKRA SHIS GRAGS PA, ZUR MKHAR PA BLO GROS RGYAL PO 'KHRUNGS,
BDUD 'JOMS CHOS 'BYUNG SOGS SU THANG STONG RGYAL PO 'DAS PAR
BZHED,

1510 9) LCAGS RTA,

1511 9) LCAGS LUG CHOS RJE 'DAR STON PA DANG, RGYUD PA CHOS LDAN
BLO GROS, SGAM PO BA BSOD NAMS RGYA MTSO GSUM GSHEGS, RJE BTZUN
CHOS KYI RGYAL MTSAN SE RA BYES KYI KHRIR 'KHOD, SHES RAB DAR
KHRIR PHEBS, PAn CHEN BSOD NAMS GRAGS PA RGYUD KYI KHRIR 'KHOD,

1512 9) CHU SPREL, SI TU BKRA SHIS DPAL 'BYOR GSHEGS, RGYAL BA
DGE 'DUN RGYA MTSO BKRA SHIS LHUN PO'I GDAN SAR PHEBS,

1513 9) CHU BYA, MKHAS GRUB NOR BZANG RGYA MTSO GSHEGS, SI TU
CHOS KYI GO CHA DANG, SGAM PO BKRA SHIS RNAM RGYAL GNYIS
'KHRUNGS,

1514 9) SHING KHYI, RJE DRUNG KUN DGA' DANG, GNYAL STON DPAL
'BYOR LHUN GRUB GNYIS GSHEd, ZHA LU LO CHEN CHOS SKYONG BZANG
POS DAG YIG ZA MA TOG THENGS DANG PO BRTZAMS, PAn CHEN BSOD NAMS
GRAGS PAS GSANG 'DUS BSKYED RDZOGS BRTZAMS,

1515 9) SHING PHAG GNYUG LA PAn CHEN GSHEGS, KARMA BLO GROS
'KHRUNGS,

1516 9) ME BYI, RGYUD PA DPON SLOB LHA RIN PA GSHEGS, SPRUL SKU
GRAGS PA DPAL 'BYOR, SGAM PO BA BSOD NAMS DBANG RGYAL, CHOS RJE
BYAMS PA RGYA MTSO GSUM 'KHRUNGS, BLO BZANG BSTAN PA BKRA SHIS
LHUN PO'I GDAN SAR PHEBS, CHOS KYI BSHES GNYEN DGA' LDAN GYI
KHRIR PHEBS,

1517 9) ME GLANG, RGYAL BA DGE 'DUN RGYA MTSOS 'BRAS SPUNGS KYI
MKHAN PO MDZAD, 'PHRENG PHO GTER STON SHES RAB 'OD ZER 'KHRUNGS,

@3255

1518 9) SA STAG SI TU BSOD NAMS RNAM RGYAL KARMA'I GDAN SAR
PHEBS, RGYAL BA DGE 'DUN RGYA MTSOS SMON LAM GYI TSOGS DBU
MDZAD, 'DI LO NAS SE 'BRAS DGA' GSUM SLAR YANG SNGAR RGYUN LTAR
SMON LAM CHEN MO TSUGS, SNE GDONG MI DBANG BKRA SHIS GRAGS PAS
'BRAS SPUNGS RDO KHANG SNGON MO RGYAL BA DGE 'DUN RGYA MTSOR
PHUL MING DGA' LDAN PHO BRANG DU BSGYUR,

1519 9) SA YOS, RJE DRUNG KUN DGA' DPAL BA CHAB MDO'I KHRIR
PHEBS, SGAM PO BA THUB DBANG BSTAN 'DZIN 'KHRUNGS,

1520 9) LCAGS 'BRUG MNYAN PA SPRUL SKU DANG, KHRI PA TSE BRTAN
RGYA MTSO GNYIS 'KHRUNGS,

1521 9) LCAGS SBRUL, THON PA MKHAS BTZUN YON TAN RGYA MTSO
GSHEGS, RIN SPUNGS NGAG DBANG 'JIGS GRAGS KYIS MNGON BRJOD MKHAS
PA'I RNA RGYAN BRTZAMS, GTER STON PAD MA GLING PA GSHEGS,

1522 9) CHU RTA, ZUR MANG BYA BTANG BAS MA nI RIL BU BSGRUBS,
RIN CHEN 'OD ZER DGA' LDAN GYI KHRIR PHEBS, MING RGYAL RABS KYI
RGYAL PO BCU GNYIS PA GYA JING RGYAL SAR 'KHOD,

1523 9) CHU LUG RGYAL ME TOG THANG GI BYAMS CHEN BZHENGS PA'I
DBU BTZUGS, DAM CHOS DPAL 'BAR DANG, MANG THOS KLU SGRUB RGYA
MTSO GNYIS 'KHRUNGS, CHOS RJE 'JIG RTEN DBANG PHYUG GIS MA THANG
CHOS 'BYUNG MU TIG PHRENG BA BRTZAMS,

1524 9) SHING SPREL, RDO RING PA KUN BZANG CHOS KYI NYI MA DANG,
SE RA DON YOD DPAL LDAN GNYIS GSHEGS, SA SKYA 'JAM DBYANGS
MKHYEN BRTZE'I DBANG PHYUG DANG, GTER STON ZHIG PO GLING PA
'KHRUNGS, RJE DRUNG SHES RAB DBANG POS SE RA'I MKHAN PO MDZAD,
PAn CHEN BSOD NAMS GRAGS PA BLO GSAL GLING GI KHRIR 'KHOD, DVAGS
PO RAB 'BYAMS PA DANG, ZHVA DMAR CHOS GRAGS YE SHES 'DAS,

1525 9) SHING BYA, MKHAS GRUB SANGS RGYAS YE SHES 'KHRUNGS,
RGYAL BA DGE 'DUN RGYA MTSOS SE RA'I MKHAN PO MDZAD, PAn CHEN
BSOD NAMS GRAGS PAS PHAR PHYIN SPYI DON BRTZAMS,

1526 9) ME KHYI, ZHVA DMAR DKON MCHOG YAN LAG BOD MKHAR BA ME
TRI DON GRUB RGYAL MTSAN, MKHAN CHEN BSLAB GSUM RGYAL MTSAN,
CHOS RJE DPAL 'BYOR RGYA MTSO BZHI 'KHRUNGS, ZHA LU LO CHEN CHOS
SKYONG BZANG POS DAG YIG ZA MA TOG ZHUS DAG MDZAD,

1527 9) ME PHAG 'BRUG PA PAD MA DKAR PO, DGON GSAR BA BSOD NAMS
CHOS 'PHEL,

@3256

SPYANG LUNG PA MKHAN CHEN GZHON NU BLO GROS GSUM 'KHRUNGS,

1528 9) SA BYI, PAn CHEN BSOD NAMS GRAGS PAS DBU MA'I SPYI DON
BRTZAMS, ZHA LU LO CHEN GSHEGS,

1529 9) SA GLANG, PAn CHEN BSOD NAMS GRAGS PA DGA' LDAN GYI
KHRIR PHEBS NAS DGA' LDAN CHOS 'BYUNG MDZAD,

1530 9) LCAGS STAG CHOS RJE SHES RAB DAR LEGS PA'I BLO GROS
GSHEGS, PAn CHEN BSOD NAMS GRAGS PAS 'DUL BA'I RNAM BSHAD
BRTZAMS,

1531 9) LCAGS YOS, 'PHAGS PA SANGS RGYAS KYIS KONG POR BKRA SHIS
PHAN BDE'I DGON PA BTAB, PAn CHEN BSOD NAMS GRAGS PAS DBU MA'I
MTHA' DPYOD BRTZAMS,

1532 9) CHU 'BRUG SGOM BDE NAM MKHA' RGYAL MTSAN DANG, KHRI PA
DGE 'DUN RGYAL MTSAN, STAG LUNG RAS PA RNAM RGYAL PHUN TSOGS
RNAMS 'KHRUNGS,

1533 9) CHU SBRUL, BSOD NAMS CHOS 'PHEL DANG, SLOB DPON DGE LEGS
RGYA MTSO GNYIS 'KHRUNGS, RGYAL MTSAN BZANG PO RGYUD SMAD KYI
KHRIR 'KHOD,

1534 9) SHING RTA, SPANG DKAR RIN PO CHE 'KHRUNGS, PAn CHEN BSOD
NAMS GRAGS PAS RNAM 'GREL DGONGS PA RAB GSAL BRTZAMS,

1535 9) SHING LUG CHOS RJE CHOS SKYONG RGYA MTSO KHRIR PHEBS,
GRUB CHEN NA KHA BA THAR PA'I RGYAL MTSAN 'KHRUNGS,

1536 9) ME SPREL, DPA' BO GTZUG LAG PHRENG BAS RTZIS 'GREL RIN
CHEN GTER MDZOD BRTZAMS,

1537 9) ME BYA, RJE DRUNG LHA DBANG CHOS KYI RGYAL MTSAN
'KHRUNGS, RJE BTZUN PA SE RA'I KHRIR PHEBS, 'BRI GUNG PAS KLUNG
SHOD SOGS SDE BCO BRGYAD DGE LUGS PA'I SA NAS PHROGS,

1538 9) SA KHYI, KARMA PA MI BSKYOD RDO RJE'I PHAR PHYIN GYI
'GREL BSHAD SE 'BRAS SU 'BYOR,

1539 9) SA PHAG KARMA 'PHRIN LAS PA DANG, CHOS RJE CHOS SKYONG
RGYA MTSO GNYIS GSHEGS, MI NYAG RDO RJE BZANG PO DGA' LDAN GYI
KHRIR PHEBS, PAn CHEN BSOD NAMS GRAGS PAS 'DUL BA'I CHOS 'BYUNG
BRTZAMS,

1540 9) LCAGS BYI, RJE DRUNG KUN DGA' DPAL LDAN, ZUR MANG BYA
BTANG PA, KHRI PA DHARMA MI TRA, KHRI PA RIN CHEN 'OD ZER BZHI
GSHEGS, KHRI PA SANGS RGYAS RIN CHEN 'KHRUNGS, BYANG BDAG BKRA
SHIS STOBS RGYAL 'KHRUNGS,

1541 9) LCAGS GLANG, SPRUL SKU LEGS BSHAD PA, MKHAN PO NAM MKHA'
RGYA MTSO, RGYUD PA RNAM RGYAL DPAL BZANG GSUM 'KHRUNGS, RGYAL
BA DGE 'DUN RGYA MTSOS MNGA' RIS GRVA

@3257

TSANG BTZUGS,

1542 9) CHU STAG RGYAL BA DGE 'DUN RGYA MTSO ZHI BAR GSHEGS, YAR
STOD DGA' TSAL BTAB, MNGA' RIS PAn CHEN PAD MA DBANG RGYAL
GSHEGS,

1543 9) CHU YOS, CHOS RJE RGYAL MTSAN BZANG PO KHRIR PHEBS, RJE
DRUNG KUN DGA' BLO GROS CHAB MDO'I KHRIR PHEBS, RGYAL BA BSOD
NAMS RGYA MTSO DANG, DBON DRUNG SANGS RGYAS 'BYUNG GNAS GNYIS
'KHRUNGS, 'PHAGS PA SANGS RGYAS PHAN BDE'I DGON DU PHEBS, PAn
CHEN BSOD NAMS GRAGS PA 'BRAS SPUNGS KYI KHRIR 'KHOD, KHA CIG LO
'DIR MNGA' RIS PAn CHEN 'DAS PAR BSHAD,

1544 9) SHING 'BRUG SGO RUM KUN DGA' LEGS PA GSHEGS, KHA CIG GIS
SE RA RJE BTZUN 'DAS ZER, GNAS CHUNG DU RDO RJE GRAGS LDAN BABS,

1545 9) SHING SBRUL, RJE DRUNG KUN DGA' BLO GROS CHAB MDO NAS
YAR BYON, DPA' BO GTZUG LAG PHRENG BAS CHOS 'BYUNG MKHAS PA'I
DGA' STON RTZOM 'GO TSUGS,

1546 9) ME RTA, SNGAGS RAM PA DGE 'DUN BKRA SHIS CHAB MDO'I GDAN
SAR PHEBS, RGYAL MTSAN BZANG PO DGA' LDAN GYI KHRIR PHEBS, PAn
CHEN BSOD NAMS GRAGS PAS SE RA'I MKHAN PO MDZAD, RGYAL BA BSOD
NAMS RGYA MTSO 'BRAS SPUNGS SU GDAN DRANGS, TSAL GUNG THANG MES
'JIG SE RA RJE BTZUN SKU GSHEGS,

1547 9) ME LUG 'DI LO'I DGUN SMAD STAG LUNG LHA KHANG CHEN MO
MES 'JIG

1548 9) SA SPREL, RJE DRUNG SHES RAB DBANG POS DAR RGYAS DGON
BTAB, CHOS RJE RGYAL MTSAN BZANG PO GSHEGS, NGAG DBANG CHOS KYI
GRAGS PA KHRIR PHEBS, STAG LUNG LHA KHANG CHEN MO ZHIG GSOS 'GO
TSUGS,

1549 9) SA BYA, GSUNG RAB RGYA MTSO'I GLING BTAB, RGYAL BA BSOD
NAMS RGYA MTSO RAB BYUNG MDZAD,

1550 9) LCAGS KHYI, BA SO SPRUL SKUS KHAMS BSHAD SGRUB GLING
BTAB, STAG LUNG GI GDAN SA RAS PA RNAM RGYAL PHUN TSOGS KYIS
BYAS,

1551 9) LCAGS PHAG KHRI PA NGAG DBANG CHOS GRAGS GSHEGS, STAG
LUNG RAS PA RNAM RGYAL PHUN TSOGS KUN SPANGS MDZAD, CHOS RJE KUN
DGA' BKRA SHIS STAG LUNG GI KHRIR 'KHOD,

1552 9) CHU BYI, SGAM PO BSOD NAMS LHUN GRUB GSHEGS, SOG BZLOG
PA BLO GROS RGYAL MTSAN 'KHRUNGS, STAG PHU BA CHOS GRAGS BZANG
PO DGA' LDAN GYI KHRIR PHEBS, RGYAL BA BSOD NAMS RGYA MTSOS
'BRAS SPUNGS KYI MKHAN PO MDZAD, RGYA RIGS KYI

@3258

SMAN PA MKHAS PA LI HRI DRIN GYIS SNGO SMAN DKAR CHAG RTZOM 'GO
TSUGS,

1553 9) CHU GLANG, RJE DRUNG MI GA-YO BA CHAB MDO'I KHRIR PHEBS,
SEMS DPA' SPRUL SKU SMON LAM BLO GROS DANG, SGAM PO BSOD NAMS
DBANG RGYAL GNYIS GSHEGS, DPAL 'BYOR BSOD NAMS LHUN GRUB
'KHRUNGS, SNGAGS RAMS PAS THUB CHEN BZHENGS PA RAB GNAS DANG
BCAS PA GRUB,

1554 9) SHING STAG KARMA PA MI BSKYOD RDO RJE DANG, PAn CHEN
BSOD NAMS GRAGS PA, KHRI PA MI NYAG RDO RJE BZANG PO GSUM
GSHEGS, SEMS DPA' SPRUL SKU GRAGS PA RGYAL MTSAN 'KHRUNGS,

1555 9) SHING YOS, 'PHAGS PA SANGS RGYAS KYI YAB SANGS RGYAS
BKRA SHIS GSHEGS, SA SKYA SNGAGS 'CHANG GRAGS PA BLO GROS DANG,
CHOS RJE GRAGS PA RGYA MTSO 'KHRUNGS,

1556 9) ME 'BRUG KARMA PA DBANG PHYUG RDO RJE DANG, SPRUL SKU
BSOD NAMS YE SHES DBANG PO GNYIS 'KHRUNGS, STONG 'KHOR ZLA BA
RGYAL MTSAN GSHEGS,

1557 9) ME SBRUL, RJE DRUNG KUN DGA' BKRA SHIS GSHEGS, STONG
'KHOR YON TAN RGYA MTSO 'KHRUNGS, 'BRI GUNG RGYAL DBANG RIN CHEN
PHUN TSOGS 'DAS,

1558 9) SA RTA, PHRIN LAS LHUN GRUB DANG, DBANG PHYUG RAB BRTAN
GNYIS 'KHRUNGS, CHOS RJE BDE BA CAN PA DGE LEGS DPAL BZANG KHRIR
PHEBS, RGYAL BA BSOD NAMS RGYA MTSOS SE RA'I MKHAN PO MDZAD,
RGOD TSANG PA MGON PO RDO RJE DANG, KIRTI BSTAN PA RIN CHEN
'DAS, CO NE CHOS RJE SBYIN PA DAR RGYAS 'KHRUNGS,

1559 9) SA LUG KHRI PA CHOS GRAGS BZANG PO GSHEGS, SA SKYA NGAG
DBANG KUN DGA' DBANG RGYAL 'KHRUNGS,

1560 9) LCAGS SPREL, RJE DRUNG SHES RAB DBANG PO CHAB MDO'I
KHRIR PHEBS,

1561 9) LCAGS BYA, 'KHON STON DPAL 'BYOR LHUN GRUB DANG, KHRI PA
TSUL KHRIMS CHOS 'PHEL GNYIS 'KHRUNGS,

1562 9) CHU KHYI, SGAM PO THUB DBANG BSTAN 'DZIN GSHEGS,

1563 9) CHU PHAG ZHVA LU LO CHEN RATNA BHA TRA GSHEGS, PHAN BDE
SLOB DPON 'PHAGS PA DAR RGYAS 'KHRUNGS,

1564 9) SHING BYI, RJE DRUNG MI GA-YO SNYING PO GSHEGS, SPRUL
SKU SANGS RGYAS CHOS 'DZIN DANG, KIRTI BSTAN PA RAB RGYAS
'KHRUNGS, DPA' BO GTZUG LAG PHRENG BAS CHOS 'BYUNG MKHAS PA'I
DGA' STON BRTZAMS GRUB,

1565 9) SHING GLANG, DBEN SA PA RGYAL BA BLO BZANG DON GRUB
GSHEGS, CHOS RJE DGE 'DUN BSTAN

@3259

PA DAR RGYAS DGA' LDAN GYI KHRIR PHEBS, SDE PA ZHING SHAG PA TSE
BRTAN RDO RJES GZHIS KA BSAM 'GRUB RTZE BZUNG,

1566 9) ME STAG RJE DRUNG 'JAM DBYANGS BSHES GNYEN CHAB MDO'I
KHRIR PHEBS, RJE DRUNG KUN DGA' BLO GROS DANG, 'PHAGS PA SANGS
RGYAS GNYIS GSHEGS, SI TU NOR BU BSAM 'PHEL DANG, RGYA RA BA
SHES RAB PHUN TSOGS GNYIS 'KHRUNGS, DPA' BO GTZUG LAG PHRENG BA
DANG, JO NANG KUN DGA' GROL MCHOG 'DAS,

1567 RAB BYUNG BCU PA, ME YOS, KHRI PA DGE LEGS DPAL BZANG DANG,
TSAR CHEN BLO GSAL RGYA MTSO GNYIS GSHEGS, 'PHAGS PA LHA MTHONG
BA DON LDAN 'KHRUNGS, NA KHA GRUB CHEN RGYUD DU PHEBS, MING
RGYAL RABS KYI RGYAL PO BCU GSUM PA LUNG CHING KHRIR 'KHOD,

1568 10) SA 'BRUG CHOS RJE TSE BRTAN RGYA MTSO DGA' LDAN GYI
KHRIR PHEBS, DPA' BO GTZUG LAG RGYA MTSO 'KHRUNGS, KHRI PA DGE
'DUN BSTAN PA DAR RGYAS DANG, 'JAM DBYANGS MKHAN CHEN GNYIS
GSHEGS,

1569 10) SA SBRUL, RJE DRUNG 'JAM DBYANGS BSHES GNYEN GSHEGS,

1570 10) LCAGS RTA, PAn CHEN BLO BZANG CHOS KYI RGYAL MTSAN
'KHRUNGS, DPAL 'BYOR LHUN GRUB KYIS RJE BSOD NAMS RGYA MTSO
MJAL,

1571 10) LCAGS LUG STAG LUNG ZHABS DRUNG NGAG DBANG RNAM RGYAL
'KHRUNGS,

1572 10) CHU SPREL, SGAM PO KHRI CHEN BKRA SHIS KUN GRAGS 'DAS,
SEMS DPA' SPRUL SKU GRAGS PA RGYAL MTSAN 'DAS, SKYID SHOD DU
PHAG GRU'I SDE GZAR LANGS,

1573 10) CHU BYA, MING RGYAL RABS KYI RGYAL PO BCU BZHI PA WAN
LI KHRIR 'KHOD,

1574 10) SHING KHYI, SI TU KARMA CHOS KYI RGYAL MTSAN 'KHRUNGS,
RGYAL BA BSOD NAMS RGYA MTSOS RNAM RGYAL GRVA TSANG BTAB,

1575 10) SHING PHAG RJE BTZUN T'A RA NA THA 'KHRUNGS,

1576 10) ME BYI, ZHAL SNGA SGAR PA'I GRVA TSANG 'CHAD NYAN PAR
SLOB DPON CHOS DAR RGYA MTSO BSKOS, KHRI PA TSE BRTAN RGYA MTSO
GSHEGS,

1577 10) ME GLANG, RGYAL BA BSOD NAMS RGYA MTSO SOG YUL DU BYON,
DE'I DRUNG DU DPAL 'BYOR LHUN GRUB RAB TU BYUNG, 'PHAGS PA LHA
MTHONG BA DON LDAN CHAB MDOR PHEBS,

1578 10) SA STAG 'GAR DAM PA BSTAN 'DZIN PHUN TSOGS 'KHRUNGS,
BYANG BDAG PO BKRA SHIS STOBS RGYAS GSHEGS, RJE BSOD NAMS RGYA
MTSO DANG AAL THAN RGYAL PO

@3260

MCHOD YON THEG CHEN GLING DU ZHAL 'DZOMS, LO RGYUS 'GA' ZHIG TU
RGYAL DBANG BSOD NAMS RGYA MTSOS SKU 'BUM BYAMS PA GLING BTAB
PAR 'DOD,

1579 10) SA YOS, RJE BSOD NAMS RGYA MTSO DANG, AAL THAN RGYAL
POS BYANG CHEN CHOS 'KHOR GLING BTAB, GONG MA WAN LI RGYAL POS
T'A LA'I BSOD NAMS RGYA MTSOR 'JA' SA DANG THAM GA PHUL,

1580 10) LCAGS 'BRUG RJE DRUNG LHA DBANG CHOS KYI RGYAL MTSAN
CHAB MDO'I KHRIR PHEBS, RGYAL BA BSOD NAMS RGYA MTSOS LI THANG
CHOS 'KHOR GLING BTAB, 'KHON STON DVAGS PO GRVA TSANG DU BYON,
BYANG BDAG RIG 'DZIN NGAG GI DBANG PO 'KHRUNGS, DPAL NGAG DBANG
GRAGS PA PHAG GRU'I GDAN SAR 'KHOD,

1581 10) LCAGS SBRUL, RGYAL BA BSOD NAMS RGYA MTSO CHAB MDO'I
KHRIR PHEBS, SNGAGS 'CHANG GRAGS PA BLO GROS SA SKYA'I GDAN SAR
'KHOD, 'BRI GUNG NANG 'KHRUG BYUNG, STAG LUNG CHOS RJE KUN BKRAS
PAS LHA SA'I GTZUG LAG KHANG GI GSER THOG DBUS MA GSAR BRJE
MDZAD,

1582 10) CHU RTA, PAn CHEN RIN PO CHE DBEN DGON DU PHEBS NAS RAB
BYUNG MDZAD, GU SHR'I BSTAN 'DZIN CHOS RGYAL BTZAS, CHOS RJE
DPAL 'BYOR RGYA MTSO DGA' LDAN GYI KHRIR PHEBS, 'BRUG PA ZHABS
DRUNG NGAG DBANG RNAM RGYAL 'KHRUNGS, STAG LUNG CHOS RJE KUN
DGA' BKRA SHIS KYIS STAG LUNG GLING GI LCAGS RI BRTZIGS,

1583 10) CHU LUG NGAG DBANG SPRUL SKU 'KHRUNGS, ZHVA DMAR DKON
COG YAN LAG DANG GTER STON ZHIG PO GLING PA 'DAS,

1584 10) SHING SPREL, ZHVA DMAR NGAG DBANG CHOS KYI DBANG PHYUG
'KHRUNGS, NA KHA GRUB CHEN GYIS RGYAL LHA THOG TU LO BCU GNYIS
ZLA BA BCU GNYIS ZHAG BCU GNYIS ZA MA BCU GNYIS PHRAG BZHIR
SGRUB PA MDZAD,

1585 10) SHING BYA, MKHAN CHEN BLO GROS PHYOGS LAS RNAM RGYAL
GSHEGS, GRUB CHEN GYIS DVAGS PO GRVA TSANG BLA MA NAM MKHA' RGYA
MTSOR 'PHRIN BCOL MDZAD, CHAB MDO DBON DRUNG DAR RTZE MDOR
PHEBS, GTER STON LAS 'PHRO GLING PA'AM RIG 'DZIN 'JA' TSON
SNYING PO, SNGAGS 'CHANG H'Um NAG ME 'BAR ZHES SKU GCIG LA MTSAN
GSUM PA DE 'KHRUNGS,

1586 10) ME KHYI, RJE DRUNG SHES RAB DBANG PO GSHEGS, MKHAS GRUB
SH'AKYA LHA DBANG 'KHRUNGS, 'PHAGS PA LHA MTHONG BA DON LDAN
'JANG SA DAM GYI YUL DU PHEBS, PAn CHEN RIN PO CHE BKRA SHIS
LHUN PO'I CHOS GRVAR BYON,

1587 10) ME PHAG SGOM SDE NAM MKHA' RGYAL MTSAN GYIS BSTAN RTZIS
MDZAD,

@3261

1588 10) SA BYI, RGYAL BA BSOD NAMS RGYA MTSO SOG YUL DU GSHEGS,
STONG 'KHOR 'JAM DBYANGS RGYA MTSO 'KHRUNGS,

1589 10) SA GLANG, RGYAL BA YON TAN RGYA MTSO MKHAR SNGON POR
'KHRUNGS, SGAM PO ZHABS DRUNG NOR BU RGYAL MTSAN PA'ANG SKU
BLTAMS, CHOS RJE DAM CHOS DPAL 'BAR DGA' LDAN GYI KHRIR PHEBS,
NA KHA GRUB CHEN GSHEGS,

1590 10) LCAGS STAG  CHOS RJE BYAMS PA RGYA MTSO GSHEGS, DVAGS
PO CHOS RJES NA KHA GRUB CHEN THAR PA'I RGYAL MTSAN GYI RNAM
THAR BRTZAMS,

1591 10) LCAGS YOS, DBEN SA PA MKHAS GRUB SANGS RGYAS SKU
GSHEGS, MKHAN CHEN BLO GROS GZHON NU MCHOD YON GYIS BKRA SHIS
RTZE'I CHOS SDE BTAB, DAM CHOS YAR 'PHEL LAS PAn CHEN CHOS RGYAN
BSNYEN PAR RDZOGS, BYAMS PA SPRUL SKU 'KHRUNGS, PAn CHEN RIN PO
CHE DGA' LDAN DU BYON,

1592 10) CHU 'BRUG  SGOM SDE NAM MKHA' RGYAL MTSAN DANG, 'BRUG
PA PAD MA DKAR PO, SPRUL SKU BSOD NAMS YE SHES DBANG PO RNAMS
GSHEGS, SGAM PO BSOD NAMS RAB BRTAN DANG, DBEN SA SPRUL SKU YE
SHES RGYA MTSO GNYIS 'KHRUNGS, KHRA'O SHAN DANG KRUNG GO MNYAM
SBREL GYIS RI 'GOG DMAG 'KHRUG BYAS,

1593 10) CHU SBRUL, SGAM PO BA BSOD NAMS 'PHRIN LAS 'KHRUNGS,
DKON MCHOG CHOS 'PHEL GYIS RTZE THANG DU GRVA BSKOR MDZAD, 'BRUG
PA SPRUL SKU DPAG BSAM DBANG PO 'KHRUNGS,

1594 10) SHING RTA, 'PHAGS PA MTHONG BA DON LDAN CHAB MDO'I
KHRIR PHEBS, BSTAN 'DZIN CHOS RGYAL GYIS MGO DKAR BCOM, DKON
MCHOG CHOS 'PHEL GYIS RA BA STOD DU STAG LUNG GRAGS PA BLO GROS
RGYA MTSOR GTUGS, SPRUL SKU BSOD NAMS DGE LEGS DPAL BZANG
'KHRUNGS, DPAL 'BYOR RGYA MTSO LAS 'KHON STON BSNYEN PAR RDZOGS,

1595 10) SHING LUG  DKON MCHOG PHUN TSOGS, SMAN LUNG PA BLO
MCHOG RDO RJE, SDE SRID BSOD NAMS RAB BRTAN BCAS 'KHRUNGS,

1596 10) ME SPREL, DPAL 'BYOR RGYA MTSO LAS DKON MCHOG CHOS
'PHEL BSNYEN PAR RDZOGS, CHOS RJE SANGS RGYAS RIN CHEN DGA' LDAN
GYI KHRIR PHEBS, GU SHR'I HAN GYI BU BSTAN 'DZIN DVA YAN BTZAS,

1597 10) ME BYA, BDAG CHEN AA MES NGAG DBANG KUN DGA' BSOD NAMS
DANG, LHA BTZUN NAM MKHA' 'JIGS MED 'KHRUNGS,

@3262

1598 10) SA KHYI, PAn CHEN CHOS RGYAN GANGS CAN CHOS 'PHEL GYI
KHRIR PHEBS, PAD GLING GSUNG SPRUL TSUL KHRIMS RDO RJE 'KHRUNGS,

1599 10) SA PHAG  KHRI CHEN BKRA SHIS KUN GRAGS, CHOS RJE DPAL
'BYOR RGYA MTSO, KHRI PA DAM CHOS DPAL 'BAR, MKHAN CHEN GZHON NU
BLO GROS BCAS GSHEGS, RGYAL BA YON TAN RGYA MTSO SOG YUL NAS BOD
DU PHEBS RDOG THON,

1600 10) LCAGS BYI, MKHAN PO NAM MKHA' RGYA MTSO GSHEGS, NGAG
DBANG BKRA SHIS DPAL GRUB 'KHRUNGS, PAn CHEN BLO BZANG CHOS
RGYAN BKRA SHIS LHUN PO'I KHRIR PHEBS, DKON MCHOG CHOS 'PHEL
KHAMS SU BYON,

1601 10) LCAGS GLANG, DPAL 'BYOR LHUN GRUB NYI MA THANG GI 'CHAD
NYAN PAR PHEBS, RGYAL KHANG RTZE SPRUL SKU 'KHRUNGS,

1602 10) CHU STAG  DKON MCHOG CHOS 'PHEL RA BA STOD KYI 'CHAD
NYAN PAR PHEBS, ZHA LU MKHAN CHEN BSOD NAMS MCHOG GRUB DANG,
SRAD RGYUD RDO RJE 'CHANG DKON MCHOG YAR 'PHEL GNYIS 'KHRUNGS,
RGYUD CHEN RNAM RGYAL DPAL BZANG GSHEGS,

1603 10) CHU YOS, RGYAL BA YON TAN RGYA MTSO DBUS SU PHEBS, KHRI
PA DGE 'DUN RGYAL MTSAN RAB TU BYUNG, KARMA PA DBANG PHYUG RDO
RJE 'DAS, CHOS RJE DGE 'DUN RGYAL MTSAN KHRIR PHEBS, MGON PO
BSOD NAMS MCHOG LDAN 'KHRUNGS,

1604 10) SHING 'BRUG  'PHAGS PA LHA MTHONG BA DON LDAN, SEMS
DPA' SPRUL SKU NGAG DBANG GRAGS PA RGYA MTSO GNYIS 'DAS, KARMA
PA CHOS DBYINGS RDO RJE DANG, ZUR CHOS DBYINGS RANG GROL
'KHRUNGS, RGYAL SRAS DON YOD CHOS KYI RGYA MTSOS DGON LUNG BTAB,
DBEN SA SPRUL SKU YE SHES RGYA MTSO 'DAS,

1605 10) SHING SBRUL, 'PHAGS PA LHA CHOS KYI RGYAL PO, DBEN SA
SPRUL SKU BLO BZANG BSTAN 'DZIN RGYA MTSO, SEMS DPA' SPRUL SKU
NGAG DBANG PHUN TSOGS RNAM RGYAL DBANG PO'I SDE RNAMS 'KHRUNGS,
DPAL 'BYOR LHUN GRUB SE RA BYES KYI 'CHAD NYAN PAR PHEBS, RIN
SPUNGS KARMA BSTAN SKYONG PAS 'PHAN POR DMAG DRANGS TSUL RGYA
YIG LO RGYUS SU GSAL, 'DI ZHING SHAG RED,

1606 10) ME RTA, BA SO RJE DRUNG LHA DBANG CHOS KYI DBANG PHYUG
'KHRUNGS, BSTAN 'DZIN CHOS RGYAL GYIS KHAL KHA DANG AO ROD BAR
'DUM BYAS NAS KO SHR'I'I CHO LO THOB,

1607 10) ME LUG  RJE NGAG DBANG PHRIN LAS BZANG PO 'KHRUNGS,
KHRI PA DGE 'DUN RGYAL MTSAN GSHEGS, 'PHAGS PA DAR RGYAS PHAN
BDE SLOB DPON DU 'KHOD, GSER GDUNG GI RMANG BTING, CHOS RJE
SNYAN GRAGS PA KHRIR PHEBS, RGYAL BA YON TAN RGYA MTSO GTZANG DU
PHEBS, STAG LUNG ZHABS DRUNG NGAG DBANG RNAM RGYAL

@3263

GYIS STAG LUNG BKA' BRGYUD SDOM GSUM GLING BTAB, RONG PO SKAL
LDAN RGYA MTSO 'KHRUNGS,

1608 10) SA SPREL, BKRA SHIS LHUN POR DBYEN ZLUM MCHOD RTEN
BZHENGS, PAn CHEN RIN PO CHE DGE 'PHEL GYI KHRIR PHEBS, SPRUL
SKU DPAL 'BYOR RGYA MTSO 'KHRUNGS, JO NANG T'A RA NA THAS RGYA
GAR CHOS 'BYUNG BRTZAMS,

1609 10) SA BYA, SRAD RDO RJE 'CHANG DKON MCHOG RGYA MTSO LAS
RGYUD CHEN DKON MCHOG YAR 'PHEL RAB TU BYUNG, STAG LUNG ZHABS
DRUNG NGAG DBANG RNAM RGYAL GYIS STAG LUNG CHOS 'BYUNG BRTZAMS,
PAn CHEN BLO BZANG CHOS RGYAN GYIS BKRAS LHUN RGYUD PA GRVA
TSANG BTZUGS,

1610 10) LCAGS KHYI, BSOD NAMS CHOS 'PHEL DANG SLOB DPON DGE
LEGS RGYA MTSO GNYIS GSHEGS, BKA' BRGYUD KARMA PHUN TSOGS RNAM
RGYAL GYIS YAR RGYAB BZUNG,

1611 10) LCAGS PHAG  PAn CHEN BLO BZANG CHOS RGYAN GYIS 'BRAS
SPUNGS SU RDO RJE'I 'PHENG BA SOGS CHOS KYI CHAR PHAB, RTZIS
GZHUNG NYIN SNANG LAS GSANG BDAG 'PHRIN LAS LHUN GRUB 'KHRUNGS
ZHES GSAL,

1612 10) CHU BYI, SGAM PO BA RIN CHEN 'KHRUNGS, PAn CHEN RIN PO
CHES BYAMS PA'I GSER THOG BZHENGS, CHOS RJE SANGS RGYAS RIN CHEN
GSHEGS, DKON MCHOG CHOS 'PHEL RGYUD STOD KYI KHRIR PHEBS, RIN
SPUNGS KARMA PHUN TSOGS RNAM RGYAL GYIS GTZANG PHYOGS PHAL CHER
DBANG DU BSGYUR NAS GTZANG PA RGYAL PO ZER BA DE BYUNG,

1613 10) CHU GLANG, LO 'DI NAS BZUNG STE LO DRUG GI RING PAn
CHEN CHOS RGYAN GYIS SMON LAM CHEN MO'I TSOGS DBU MDZAD, GTZANG
PA KARMA BSTAN SKYONG GIS KHRIMS YIG ZHAL LCE BCO LNGA NAS DPA'
RDAR GYI ZHAL LCE GNYIS DOR NAS ZHAL LCE BCU GSUM DU GTAN LA
PHAB,

1614 10) SHING STAG  PAn CHEN CHOS RGYAN LAS RGYAL BA YON TAN
RGYA MTSO BSNYEN PAR RDZOGS, CHOS RJE CHOS SNYAN GRAGS PA
GSHEGS, PHA BONG KHA PAS ('KHON STON DPAL 'BYOR LHUN GRUB) BSTAN
RTZIS MDZAD, SA SKYA MKHAN CHEN NGAG DBANG CHOS GRAGS KYIS SNYAN
NGAG GI DON RGYAN SO LNGA'I DRI BA DANG, RANG LAN DPYAD GSUM
RNAM DAG BRTZAMS,

1615 10) SHING YOS, STAG LUNG GRAGS PA BLO GROS RGYA MTSO DGE
LDAN GYI KHRIR PHEBS, SPRUL SKU BSOD NAMS DGE LEGS DPAL BZANG PO
GSHEGS, DKON MCHOG CHOS 'PHEL RIN CHEN GLING GI KHRIR PHEBS,
GTER STON RIG 'DZIN CHEN PO BDUD 'DUL RDO RJE 'KHRUNGS,

@3264

1616 10) ME 'BRUG  RGYAL BA YON TAN RGYA MTSO GSHEGS, CIN RJES
MA'I RGYAL RABS TSUGS SHING, THA'I DZU'U NUR HAN KHRI YIS SRID
BZUNG, RGYAL SA LE'O NYING GI HRIN DBYANG, THANG STONG RGYAL POS
THOG MAR PHYAG BTAB PA'I SDE DGE LHUN GRUB STENG DGON CHEN CHAGS
ZHES GDONG THOG PAS BSHAD,

1617 10) ME SBRUL, RJE THAMS CAD MKHYEN PA BLO BZANG RGYA MTSO
'KHRUNGS, PAn CHEN RIN PO CHE SE 'BRAS GNYIS KYI KHRIR PHEBS,
KARMA PA CHOS DBYINGS RDO RJE GZHIS KA BSAM 'GRUB RTZER PHEBS,
SA SKYA SNGAGS 'CHANG GRAGS PA BLO GROS 'DAS, DE'I SRAS NGAG
DBANG KUN DGA' DBANG RGYAL SA SKYA'I KHRIR 'KHOD,

1618 10) SA RTA, HOR ZLA BDUN PAR SE 'BRAS GLING LOG BYUNG, CHOS
RJE BLO GROS RGYA MTSO DANG, SGAM PO BSOD NAMS RAB BSTAN GNYIS
GSHEGS, CHOS RJE DAM CHOS DPAL BZANG KHRIR PHEBS, DKON MCHOG
CHOS 'PHEL SKYOR MO LUNG GI KHRIR PHEBS, SDE PA ZHABS DRUNG MDO
SMAD DU PHEBS, PAn CHEN RIN PO CHE MNGA' RIS SU PHEBS, KARMA PA
DANG RIN SPUNG MNYAM SBREL GYIS DBUS GTZANG GI SRID DBANG BZUNG,
PHAG GRU'I SRID DBANG RTZA BA NAS 'THOR, BOD MKHAS PA MI PHAM
DGE LEGS RNAM RGYAL 'KHRUNGS,

1619 10) SA LUG  DKON MCHOG CHOS 'PHEL GSANG PHU'I KHRIR PHEBS,
DPAL 'BYOR LHUN GRUB PHA BONG KHAR BZHUGS, SPRUL SKU GRAGS PA
RGYAL MTSAN 'KHRUNGS, CHOS RJE DGE 'DUN RIN CHEN GYIS THANG RING
CHOS SDE BTAB, RGYAL KHANG RTZE SPRUL SKU GSHEGS, CHOS RJE SHES
RAB MCHOG LDAN GYIS GRO TSANG DGON BTAB,

1620 10) LCAGS SPREL, DBON DRUNG GSHEGS NAS 'PHAGS PA LHA CHOS
KYI RGYAL PO CHAB MDO'I KHRIR PHEBS, CHOS RJE TSUL KHRIMS CHOS
'PHEL DGA' LDAN GYI KHRIR PHEBS, MING RGYAL RABS KYI RGYAL PO
BCO LNGA PA THA'E KHRANG RGYAL PO KHRIR 'KHOD,

1621 10) LCAGS BYA, SOG PO LHA BTZUN CHUNG BA BLO BZANG BSTAN
'DZIN DANG, RGYAL PO HO THA'I JI GNYIS NAS SOG DMAG BTANG BA BOD
DU 'BYOR NAS DBUS SOG MNYAM 'BREL GYIS GTZANG PA RGYAL PO'I
DPUNG DANG GA-YUL 'KHRUG BYAS TE SNGAR GTZANG PAR SHOR BA'I
MCHOD GZHIS RNAMS PHYIR LEN BYAS, MING RGYAL RABS KYI RGYAL PO
BCU DRUG PA THEN CHI RGYAL PO KHRIR 'KHOD,

1622 10) CHU KHYI T'A LA'I LNGA PA 'BRAS SPUNGS SU GDAN DRANGS,
GTER STON CHOS RJE GLING PA 'KHRUNGS,

1623 10) CHU PHAG  CHOS RJE TSUL KHRIMS CHOS 'PHEL GSHEGS, CHOS
RJE GRAGS PA RGYA MTSO DGA' LDAN GYI KHRIR PHEBS NAS RING PO MA
LON PAR GSHEGS SHING CHOS RJE NGAG

@3265

DBANG CHOS KYI RGYAL MTSAN DGA' LDAN GYI KHRIR PHEBS TE, LO
GNYIS SONG MTSAMS KHRI THOG PAn CHEN RIN PO CHE LA PHUL, PAn
CHEN RIN PO CHES BCU GCIG ZHAL GYI GSER THOG BZHENGS,

1624 10) SHING BYI, DPAL 'BYOR PHRIN LAS RAB RGYAS KYIS RTZIS
DKAR NAG GI DRI BA BRTZAMS,

1625 10) SHING GLANG, CHAB MDO ZHI BA BZANG PO 'KHRUNGS, RJE YON
TAN RGYA MTSO'I DNGUL GDUNG GRUB, DKON MCHOG CHOS 'PHEL SHAR
RTZER PHEBS, RDZOGS CHEN PADMA RIG 'DZIN 'KHRUNGS,

1626 10) ME STAG  PAn CHEN RIN PO CHE BYANG RTZER PHEBS, SPRUL
SKU NGAG DBANG 'PHAGS PA RGYA MTSO RAB TU BYUNG, DKON MCHOG CHOS
'PHEL DGA' LDAN GYI KHRIR PHEBS, LI THANG MKHAN PO NYAG RI CHOS
GRAGS 'KHRUNGS,

1627 10) RAB BYUNG BCU GCIG PA, ME YOS, CIN RJES MA'I RGYAL PO
GNYIS PA THEN TSONG KHRIR 'KHOD, 'JAM DBYANGS DKON MCHOG CHOS
'PHEL GYIS RGYAL DBANG LNGA PA'I DBU BLA DANG SMON LAM GYI TSOGS
DBU MDZAD, GRUB DBANG BKRA SHIS RGYA MTSO 'DAS, LHO RGYUD SA
GA-YOS,

1628 11) SA 'BRUG  MING RGYAL RABS KYI RGYAL PO BCU BDUN PA
KHRUNG KREN RGYAL SAR 'KHOD,

1629 11) SA SBRUL, PAn CHEN RIN PO CHES DGA' LDAN GSER THOG
BZHENGS, DUS MCHOD BLA BRANG PA AA MES NGAG DBANG KUN DGA' BSOD
NAMS KYIS SA SKYA'I GDUNG RABS RIN CHEN BANG MDZOD BRTZAMS,

1630 11) LCAGS RTA, SLOB DPON GRUB CHEN SKAL LDAN RGYA MTSOS
RONG POR GRVA TSANG BTZUGS, SOG PO LHA BTZUN GYIS DMAG DRANGS TE
MTSO SNGON DBANG 'OG TU BCUG

1631 11) LCAGS LUG  ZHVA DMAR BDUN PA DPAL LDAN YE SHES DANG, DE
MO NGAG DBANG DGE LEGS RGYAL MTSAN GNYIS 'KHRUNGS, JO NANG T'A
RA NA THAS 'JIGS BYED CHOS 'BYUNG BRTZAMS,

1632 11) CHU SPREL, RGYA RA BA SHES RAB PHUN TSOGS GSHEGS, CHOS
RJE KONG PO BSTAN 'DZIN LEGS BSHAD DGA' LDAN GYI KHRIR PHEBS,
KHAL KHA CHOG THU RANG YUL NAS PHUD PA MTSO SNGON DU YONG NAS
DPON PO BYAS, BYANG BDAG RIG 'DZIN NGAG GI DBANG POS THUB BSTAN
RDO RJE BRAG AE WAm LCOG SGAR BTAB CES GDONG THOG PAS BSHAD,

1633 11) CHU BYA, ZHABS DRUNG NOR BU RGYAL MTSAN PA DANG SLOB
DPON SHES RAB DPAL BZANG GNYIS GSHEGS, LNGA PA CHEN POS 'KHON
STON LAS GSANG SNGAGS GSAR RNYING GI CHOS GSAN, BE RI'I DMAG
LHAGS PA'I RKYEN GYIS RJE DRUNG GRAGS PA RGYAL MTSAN GNAS BZOD
MI BDE BA BYUNG,

@3266

1634 11) SHING KHYI, JO NANG T'A RA NA THA 'DAS,

1635 11) SHING PHAG  DBUS GTZANG NANG 'KHRUG BYUNG, HAL HA RJE
BTZUN DAM PA BLO BZANG BSTAN PA'I RGYAL MTSAN 'KHRUNGS,

1636 11) ME BYI, CIN RJES MA'I RGYAL RABS KYI MING CHING RGYAL
RABS SU BSGYUR, GONG MA KHRUNG TE KHRIR 'KHOD, SGAM PO BKRA SHIS
GRAGS PA RGYAL MTSAN DANG, RDO RJE 'CHANG DBANG PHYUG RAB BSTAN
GNYIS GSHEGS, BZANG PO RDO RJE 'KHRUNGS, GTZANG DPUNG GNAM
MTSO'I BAR DU SLEBS,

1637 11) ME GLANG, DGE LEGS SKU SKYE CHAB MDOR BSNYEN PAR
RDZOGS, PHAN BDE SLOB DPON 'PHAGS DAR DANG, DPAL 'BYOR LHUN GRUB
GNYIS GSHEGS, BSTAN 'DZIN CHOS RGYAL GYIS CHOG THU BCOM NAS DBUS
SU PHEBS, KHRI PA'I SKOR LA SHAR BYANG RTZOD PA BYUNG NAS KHRI
PA BSTAN 'DZIN LEGS BSHAD KONG POR BROS,

1638 11) SA STAG  SPRUL SKU DPAL 'BYOR RGYA MTSOS PHAN BDE'I
SLOB DPON MDZAD, CHOS RJE DGE 'DUN RIN CHEN DGA' LDAN GYI KHRIR
PHEBS, BLO BZANG CHOS RGYAN LAS RGYAL BA BLO BZANG RGYA MTSO
NYER GNYIS PAR BSNYEN PAR RDZOGS,

1639 11) SA YOS, HOR ZLA LNGA PAR BSTAN 'DZIN CHOS RGYAL SMAR
KHAMS SU PHEBS, BYANG BDAG NGAG GI DBANG PO GSHEGS, SKYID SHOD
ZHABS DRUNG NGAG DBANG BSTAN 'DZIN PHRIN LAS CHOS DBANG GRAGS
PA'I SDE 'KHRUNGS, T'A LA'I LNGA PA DANG, PAn CHEN, GU SHR'I HAN
BCAS MNYAM SBREL GYIS KAR SRID BCOM PA'I 'GO TSUGS,

1640 11) LCAGS 'BRUG  BSTAN 'DZIN CHOS RGYAL GYIS HOR ZLA BCU
GCIG PAR BE RI RGYAL PO KHRIMS DONG DU BTZUD, PHAN BDE SH'AKYA
LHA DBANG GIS ZHAL SNGA BKA' BRGYUD KYI CHOS 'BYUNG BRTZAMS,

1641 11) LCAGS SBRUL, SA SKYA MKHAN CHEN NGAG DBANG CHOS GRAGS
GSHEGS, SGRUB KHANG DGE LEGS RGYA MTSO DANG, RDO BRAG RIG 'DZIN
PADMA PHRIN LAS, PAD GLING THUGS SRAS BSTAN 'DZIN 'GYUR MED RDO
RJE BCAS 'KHRUNGS,

1642 11) CHU RTA, ZHI BA BZANG PO CHAB MDO'I KHRIR 'KHOD, CHOS
RJE RIN CHEN RGYAL MTSAN GSHEGS, BSTAN 'DZIN CHOS RGYAL GYIS
BSAM GRUB RTZE SOGS DBUS GTZANG MTHA' DAG MNGA' 'OG TU BCUG
LCANG SKYA NGAG DBANG CHOS LDAN 'KHRUNGS, SDE SRID BSOD NAMS RAB
BRTAN SDE SRID DU BSKOS NAS DGA' LDAN PHO BRANG GI SRID GZHUNG
BTZUGS, 'DI LO 'BRAS LJONGS RGYAL KHAB BTZUGS,

1643 11) CHU LUG  'PHAGS PA LHA CHOS KYI RGYAL PO GSHEGS, DVAGS
PO CHOS RGYAL DGA' LDAN GYI KHRIR PHEBS, RGYAL DBANG LNGA PAS
DEB THER DPYID KYI RGYAL MO'I GLU DBYANGS

@3267

BRTZAMS, HAL HA BSTAN 'DZIN PHRIN LAS BTZAS,

1644 11) SHING SPREL, LI TZI KHRENG GIS 'GO KHRID PA'I ZHING
PA'I GYEN LANGS DMAG GIS MING RGYAL RABS KYI RGYAL SA BLANGS,
T'A LA'I LNGA PAS GLING SMAD DKON COG CHOS 'PHEL GYI RNAM THAR
DANG, PHAR PHYIN BLO BZANG DGONGS RGYAN BRTZAMS, T'A LA'I DANG,
PAn CHEN RNAM GNYIS KYIS MAN JU GONG MA SHUN JI KHRIR 'KHOD PAR
'TSAMS ZHU'I MI SNA BTANG,

1645 11) SHING BYA, T'A LA'I LNGA PAS 'KHON STON DPAL 'BYOR LHUN
GRUB KYI RNAM THAR BRTZAMS, PO TA LA'I PHO BRANG DKAR PO BZHENGS
'GO TSUGS, MAN JU SHUN JI RGYAL POS T'A LA'I LNGA PA DANG PAn
CHEN BLO BZANG CHOS RGYAN GNYIS LA BSNGAGS BRJOD YI GE BSKUR,
'PHAGS PA LO KE SHVA RA YANG BAR SKABS 'KHYAR BA 'DI DUS 'BYOR,
SHANGS DGA' LDAN CHOS 'KHOR BTAB,

1646 11) ME KHYI, DKON MCHOG CHOS 'PHEL GSHEGS, CHOS RGYAL GTER
BDAG GLING PA 'GYUR MED RDO RJE DANG, RNAM GLING PAn CHEN DKON
COG CHOS GRAGS 'KHRUNGS, T'A LA'I LNGA PAS MDZOD t'IKA RIN CHEN
SHING RTA BRTZAMS,

1647 11) ME PHAG  RGYAL DBANG LNGA PAS SNYAN NGAG ME LONG MA'I
DKA' 'GREL MDZAD CING BRAG YER PAR DGA' LDAN GSANG SNGAGS YANG
RTZE'I DGON PA BTAB, SDE SRID BSOD NAMS CHOS 'PHEL LA GO GNAS
DANG THAM GA SPRAD, 'BRUG PAR DPUNG 'JUG BYAS,

1648 11) SA BYI, CHOS RJE DKON MCHOG CHOS BZANG DGA' LDAN GYI
KHRIR PHEBS, 'JAM DBYANGS BZHAD PA NGAG DBANG BRTZON 'GRUS
'KHRUNGS, 'DI LO PO TA LA'I PHO BRANG DKAR PO BZHENGS GRUB, GONG
MA SHUN JI NAS T'A LA'I LNGA PA GDAN 'DREN ZHU BA'I MI SNA
'BYOR, T'A LA'I LNGA PAS CHU SHUR DGA' LDAN CHOS 'KHOR YANG RTZE
DANG, DOL GSUNG RAB GLING GNYIS BTAB,

1649 11) SA GLANG, SGAM PO BA RIN CHEN RDO RJE GSHEGS, BTZAN PO
DON GRUB RGYA MTSOS BTZAN PO DGON DGA' LDAN DAM CHOS GLING BTAB,
T'A LA'I LNGA PAS LHA RTZE 'OG MIN GLING DANG LHO BRAG DON GNYIS
GLING BTAB,

1650 11) LCAGS STAG

1651 11) LCAGS YOS, PAn CHEN CHOS RGYAN GYIS ZHA LU'I MA HER
BKA' BSGO MDZAD, T'A LA'I LNGA PAS YAR STOD THOS BSAM DAR RGYAS
GLING DANG, SA DGA' 'PHEL RGYAS GLING, GSANG SNGAGS BYANG CHUB
GLING RNAMS BTAB,

1652 11) CHU 'BRUG  RGYAL DBANG LNGA PA RGYA NAG TU PHEBS, GONG
MAS RGYAL DBANG LNGA PAR 'JA' SA GSER THAM CHEN MO DANG, GSER
YIG GNANG, 'GA' ZHIG SDE SRID SANGS

@3268

RGYAS RGYA MTSO 'KHRUNGS ZER,

1653 11) CHU SBRUL, RGYAL DBANG LNGA PA RGYA NAG NAS BOD DU
PHEBS, GU SHR'I HAN LA GONG MAS CHO LO BYIN, RGYAL DBANG LNGA
PAS GONG DKAR BSHAD SGRUB GLING BTAB,

1654 11) SHING RTA, BSTAN 'DZIN CHOS RGYAL 'DAS, DE'I BU BSTAN
'DZIN RDO RJE LA GONG MAS BSTAN 'DZIN DA YAN RGYAL PO'I CHO LO
SPRAD NAS BOD KYI RGYAL PO BYAS LO CHEN DHARMA SHR'I 'KHRUNGS,
GONG MA KHANG SHIS BTZAS,

1655 11) SHING LUG  CHOS RJE MNGA' RIS PA BSTAN PA RGYAL MTSAN
DGA' LDAN GYI KHRIR 'KHOD, GTER CHEN STAG SHAM RDO RJE 'KHRUNGS,

1656 11) ME SPREL, DKON MCHOG 'PHRIN LAS BZANG PO 'KHRUNGS, T'A
LA'I LNGA PAS DRIS LAN NYIN BYED DBANG PO BRTZAMS, RIG 'DZIN
'JA' TSON SNYING PO GSHEGS,

1657 11) ME BYA, SDE SRID BSOD NAMS RAB BRTAN 'DAS,

1658 11) SA KHYI, RGYAL DBANG LNGA PA RANG NYID KYIS SRID DBANG
BZUNG ZHING LAM RIM 'JAM DPAL ZHAL LUNG YANG BRTZAMS, RGYA GAR
BHAm GA LA'I RGYAL PO SHVA HA SU DZAS MA H'A MA D'A SHA SIS T'A
LA'I LNGA PAR 'TSAMS ZHU'I MI SNA 'BYOR,

1659 11) SA PHAG  GNAS GSAR MGON PO BSOD NAMS MCHOG LDAN GSHEGS,
NANG SO NOR BUS 'BRUG PA DANG LAG 'BREL BYAS TE BOD GZHUNG LA
NGO LOG BYAS PAR DPUNG 'JUG BYAS,

1660 11) LCAGS BYI, SDE SRID PHRIN LAS RGYA MTSO SDE SRID DU
BSKOS,

1661 11) LCAGS GLANG, GONG MA SHUN JI 'DAS,

1662 11) CHU STAG  GONG MA KHANG SHIS KHRIR 'KHOD, PAn CHEN BLO
BZANG CHOS RGYAN GO GSUM PA NAG ZLA'I BCU GSUM LA 'DAS, BLO
BZANG RGYAL MTSAN DGA' LDAN GYI KHRIR PHEBS,

1663 11) CHU YOS, PAn CHEN BLO BZANG YE SHES THOB RGYAL DU SKU
'KHRUNGS, GA-YA' MA LUNG GI GTER BTON,

1664 11) SHING 'BRUG  'PHAGS PA LHA RGYAL BA RGYA MTSO BSNYEN
PAR RDZOGS,

1665 11) SHING SBRUL, BTZAN PO DON GRUB RGYA MTSO GSHEGS, PAn
CHEN BLO BZANG YE SHES BLO BZANG CHOS RGYAN GYI SPRUL SKUR NGOS
'DZIN BYAS, GONG MA KHANG SHIS STONG 'KHOR MDO RGYUD RGYA MTSOR
MANYDZU SHR'I'I GO GNAS PHUL, SNYAN NGAG DPAG BSAM 'KHRI SHING
SKAD GNYIS SHAN SBYAR PAR DU BSKOS, RIG 'DZIN CHEN PO KUN BZANG
SHES RAB KYIS DPAL YUL RNAM RGYAL BYANG CHUB CHOS GLING BTAB,

1666 11) ME RTA,

@3269

1667 11) ME LUG  CHOS RJE NGAG DBANG PHRIN LAS BZANG PO SKU
GSHEGS, 'PHAGS PA RGYAL BA RGYA MTSO SLAR DBUS SU PHEBS, SHEL
BRAG GI GTER BTON, BOD DU SA GA-YO DANG 'OD DKAR THENGS KHA SHAS
BYUNG,

1668 11) SA SPREL, CHOS RJE RNAM DAG RDO RJE DGA' LDAN GYI KHRIR
PHEBS, DE MO SPRUL SKU LHA DBANG DGE LEGS RGYAL MTSAN, SDE SRID
PHRIN LAS RGYA MTSO DANG BSTAN 'DZIN DA YAN RGYAL PO 'DAS, PAn
CHEN BLO BZANG YE SHES BKRAS LHUN DU GDAN DRANGS, LO GCIG RING
T'A LA'I LNGA PA RANG NYID KYIS SRID DBANG BZUNG,

1669 11) SA BYA, 'PHAGS PA RGYAL BA RGYA MTSOS LCAGS RI'I DNGUL
GDUNG CHEN MO GRUB, MCHOD DPON BLO BZANG MTHU STOBS SDE SRID DU
BSKOS, T'A LA'I LANG PAS NYUG DGA' LDAN CHOS GLING BTAB, ZUR
CHOS DBYINGS RANG GROL 'DAS,

1670 11) LCAGS KHYI, LNGA PA CHEN POS GSAN YIG GANGGA'I CHU
RGYUN MDZAD, PAn CHEN BLO BZANG YE SHES BKRA SHIS LHUN PO'I
KHRIR 'KHOD, 'DAR LOS PA nI'I SGRA MDO BSGYUR,

1671 11) LCAGS PHAG  BSTAN 'DZIN DA LA'I HAN KHRIR PHEBS, SMAN
LUNG PA BLO MCHOG RDO RJE DANG, STAG LUNG PA NGAG DBANG BKRA
SHIS DPAL SGRUB GSHEGS, NGAG DBANG BSTAN 'DZIN LHUN GRUB
'KHRUNGS,

1672 11) CHU BYI, T'A LA'I LNGA PAS RI THANG MTSAMS KYI NAD
BRGYA 'JOMS PA'I SMAN GCIG BRTZAMS, MKHAR RDO BZOD PA RGYA MTSO
'KHRUNGS, GTER STON RIG 'DZIN CHEN PO BDUD 'DUL RDO RJE 'DAS,

1673 11) CHU GLANG, ZHVA DMAR NAG GNYIS YAR GDAN DRANGS, KHRI
PA DKON MCHOG CHOS BZANG GSHEGS, T'A LA'I LNGA PAS GDAN THOB
DANG, YIG BSKUR RNAM GZHAG RAB GSAL ME LONG BRTZAMS,

1674 11) SHING STAG  KARMA CHOS DBYINGS RDO RJE GSHEGS, SDE SRID
BLO BZANG MTHU STOBS PHYIR 'THEN BYAS, RGYA NAG LHO PHYOGS SU
CHING RGOL DUS ZING BYUNG, T'A LA'I LNGA PAS BSLAB BYA MU THI
LI'I 'KHRI SHING BRTZAMS,

1675 11) SHING YOS, CHOS RJE BYAMS PA BKRA SHIS DGA' LDAN GYI
KHRIR PHEBS, NGAG DBANG BSTAN 'DZIN LHUN GRUB GDAN DRANGS, MI
NYAG GONG MA BLO GROS DAR RGYAS BTZAS, GDONG THOG PAS PADMA RIG
'DZIN GYIS RDZOGS CHEN DGON BTAB PAR BSHAD,

1676 11) ME 'BRUG  GNAM LCAGS BRAG GI GTER BTON, GTER BDAG
GLING PAS SMIN GROL GLING GI DGON PA BTAB, T'A LA'I LNGA PAS CO
NE TSUL KHRIMS DAR RGYAS AO ROD JUN GAR GYI CHINGS SGRIG LA
BTANG, SDE SRID BLO BZANG SBYIN PA SDE SRID DU BSKOS, T'A LA'I
LNGA PAS STOD 'DUL LUGS KYI SDOM RGYUN BLANGS,

@3270

1677 11) ME SBRUL, KHRI CHEN NGAG DBANG MCHOG LDAN DANG, KARMA
PA YE SHES RDO RJE 'KHRUNGS, RONG PO SKAL LDAN RGYA MTSO 'DAS,

1678 11) SA RTA, RDO RJE 'CHANG PHRIN LAS LHUN GRUB PA DBUS SU
BYON, BOD MKHAS PA MI PHAM DGE LEGS KYIS SNYAN NGAG 'GREL PA
BRTZAMS, RONG PO SKAL LDAN RGYA MTSO'I SPRUL SKU NGAG DBANG
PHRIN LAS RGYA MTSO 'KHRUNGS, SDE DGE CHOS RGYAL BSTAN PA TSE
RING 'KHRUNGS,

1679 11) SA LUG  SDE SRID SANGS RGYAS RGYA MTSO KHRIR PHEBS,
'PHAGS PA RGYAL BA RGYA MTSO DBUS SU BYON, T'A LA'I LNGA PAS
GTZANG PHUNG PO RI BO CHE BTAB CING LAS CHOG RNAM RGYAL GSER
MDOG BRTZAMS, RGYAL PO DGA' LDAN TSE DBANG GIS SNE KHRID PA'I
BOD KYI DMAG DPUNG MNGA' RIS SU BTANG, SDE SRID SANGS RGYAS RGYA
MTSOS ZHAL LCE BCU GSUM NAS SNE LAS KYI ZHAL LCE DOR NAS ZHAL
LCE BCU GNYIS SU GTAN LA PHAB,

1680 11) LCAGS SPREL, T'A LA'I LNGA PAS MON DU SRID DBANG
BTZUGS, SHING MON RTA DBANG RNAM RGYAL DGON PA BTAB, THU'U BKVAN
CHOS KYI RGYA MTSO 'KHRUNGS,

1681 11) LCAGS BYA, RJE BLO GROS RGYA MTSOS RDO RJE PHRENG BA'I
DBANG BSKUR, SDE SRID SANGS RGYAS RGYA MTSOS KHRIMS YIG DVANGS
SHEL ME LONG BRTZAMS, DGA' LDAN TSE DBANG GI DPUNG GIS MNGA' RIS
BSKOR GSUM DBANG DU BSDUS NAS BOD YONGS RDZOGS GONG BU GCIG GYUR
BYUNG, RNGU SPE GRAGS PA RGYA MTSOS BRAG GA-YAB DGON CHEN BTAB,

1682 11) CHU KHYI, T'A LA'I LNGA PA DANG, SKYID SHOD ZHABS DRUNG
NGAG DBANG BSTAN 'DZIN PHRIN LAS GNYIS 'DAS, CHOS RJE KLU 'BUM
BLO GROS RGYA MTSO DGA' LDAN GYI KHRIR PHEBS, PHUR LCOG NGAG
DBANG BYAMS PA 'KHRUNGS, BOD DU SA GA-YO CHEN PO BYUNG, RGYAL
DBANG LNGA PA 'DAS PA'I SKOR SDE SRID SANGS RGYAS RGYA MTSOS LO
BCU GSUM RING GSANG RGYA BYAS, LHO BRAG MKHAR CHU BDUD I'JOMS
GLING BTAB,

1683   11) CHU PHAG  T'A LA'I DRUG PA TSANGS DBYANGS RGYA MTSO
'KHRUNGS, CHAB MDOR BKA' 'GYUR BZHENGS 'GO TSUL, RNAM GLING PAn
CHEN DKON COG CHOS GRAGS KYIS SUM RTAGS 'GREL PA SNANG BYED NOR
BU BRTZAMS, SDE SRID SANGS RGYAM PAS BEEd'URYA DKAR PO RTZOM 'GO
TSUGS,

1684   11) SHING BYI,   'JAM DBYANGS BZHAD PA'I RDO RJES SNYAN
NGAG GI BSTAN BCOS DBYANGS CAN ZHAL LUNG BRTZAMS,

1685   11) SHING GLANG,   CHOS RJE KLU 'BUM BLO GROS RGYA MTSO
RGYA NAG TU PHEBS, CHOS RJE TSUL KHRIMS

@3271

DAR RGYAS DGA' LDAN GYI KHRIR PHEBS, SDE SRID SANGS RGYAS RGYA
MTSOS BEEd'URYA DKAR PO BRTZAMS GRUB,

1686 11) ME STAG PAD DKAR 'DZIN PA NGAG DBANG YE SHES RGYA MTSO
'KHRUNGS, KHRI PA BLO GROS RGYA MTSOS HAL HAD DANG AO ROD KYI
CHINGS MDZAD, SMIN GLING GTER CHEN GYI SRAS RGAN PA PADMA 'GYUR
MED RGYA MTSO 'KHRUNGS, GRUB DBANG PAD MA RIG 'DZIN GYIS RDZOGS
CHEN RU DAM BSAM GTAN CHOS GLING BTAB,

1687 RAB BYUNG BCU GNYIS PA, ME YOS, KHRI BLO GROS RGYA MTSO
GONG MA DANG MJAL 'PHRAD MDZAD, SDE SRID SANGS RGYAS RGYA MTSOS
BEEd'URYA GA-YA' SEL RTZOM 'GO TSUGS, HAL HA'I TSO PA BDUN GYI
DMAG GIS DGA' LDAN BO SHOG THU'I GROGS PO GA-YAS RU'I RGYAL PO
DANG, SO PA RDO RJE SKYABS GNYIS BSAD,

1688 12) SA 'BRUG KHRI CHEN BLO GROS RGYA MTSO ZHI BAR GSHEGS,
LCANG SKYA RDO RJE 'CHANG NGAG DBANG BLO BZANG CHOS LDAN DGON
LUNG GI KHRIR PHEBS, SDE SRID SANGS RGYAS RGYA MTSOS BEEd'URYA
GA-YA' SEL BRTZAMS GRUB, SMAN GZHUNG BEEd'URYA SNGON PO BRTZAMS,
TA GO SHR'I NGAG DBANG PHRIN LAS RGYA MTSO BTZAS,

1689 12) SA SBRUL, 'JAM DBYANGS BZHAD RDOR GYIS GRUB MTHA'I RTZA
BA BRTZAMS, TSE DBANG RAB BRTAN GYIS BO SHOG THU MA BSDAD PA'I
SHUL DU BO SHOG THU'I GZHIS SRUNG CHA GAN THO LO NA YOD PA KUN
PHROGS, KRUNG GO DANG AO GOS NYI PU CHINGS YIG BZHAG

1690 12) LCAGS RTA, SDE SRID SANGS RGYAM PAS PO TA LA'I PHO
BRANG DMAR PO BZHENGS 'GO TSUGS, CHING SRID GZHUNG GIS JUN GAR
LA DMAG DRANGS,

1691 12) LCAGS LUG

1692 12) CHU SPREL, CHOS RJE BKA' 'GYUR BA SBYIN PA RGYA MTSO
DGA' LDAN GYI KHRIR PHEBS, SDE SRID SANGS RGYAM PAS GSER GDUNG
'DZAM GLING RGYAN GCIG GI DKAR CHAG RTZOM 'GO TSUGS, GSER GDUNG
'DZAM GLING RGYAN GCIG BZHENGS 'GO TSUGS,

1693 12) CHU BYA, GONG MA KHANG SHIS LCANG SKYA NGAG DBANG CHOS
LDAN PE CIN DU GDAN DRANGS,

1694 12) SHING KHYI, RJE PHRIN LAS LHUN GRUB PA DON GSUM SKABS
DBUS SU BYON, RGYAL DBANG LNGA PA 'DAS PA'I GNAS TSUL GSANG BA
BRTOL NAS SDE SRID SANGS RGYAM PAS TSOd MCHOD DUS CHEN BTZUGS,
PO TA LA'I PHO BRANG DMAR PO MJUG 'GRIL, GSER GDUNG 'DZAM GLING
RGYAN GCIG KYANG BZHENGS GRUB,

1695 12) SHING PHAG SDE SRID SANGS RGYAS RGYA MTSOR GONG MAS CHO
LO DANG, GSER THAM GNANG, GSER GDUNG 'DZAM GLING RGYAN GCIG LA
RAB GNAS BYAS,

@3272

1696 12) ME BYI, BSTAN 'DZIN D'A LI HAN DUG SKYON GYIS GRONGS,
CHING SRID GZHUNG GI DMAG GIS JUN GAR SKAL LDAN BO SHOG THU'I
DMAG DPUNG GTOR RJES GONG MA KHANG SHIS SDE SRID SANGS RGYAM PAR
T'A LA'I 'DAS SKOR DRI BA BTON, 1697 12) ME GLANG, RGYAL BA
TSANGS DBYANGS RGYA MTSO RAB BYUNG MDZAD, SDE SRID SANGS RGYAM
PAS T'A LA'I NGOS 'DZIN CHOG PA'I SNYAN ZHU GONG MAR PHUL DON
LTAR CHOG MCHAN BYUNG STE DRUG PA GSER KHRIR MNGA' GSOL BYAS,
MDO MKHAR ZHABS DRUNG TSE RING DBANG RGYAL DANG, SLE LUNG BZHAD
PA RDO RJE 'KHRUNGS, RDZOGS CHEN PADMA RIG 'DZIN 'DAS, MTSO
SNGON BSTAN 'DZIN CHING WANG LA GONG MA KHANG SHIS GO GNAS
SPRAD, GSER GDUNG DKAR CHAG BRTZAMS GRUB, JUN GAR BO SHOG THU
'DAS,

1698 12) SA STAG SDE SRID SANGS RGYAM PAS BEEd'URYA SER PO
BRTZAMS, JUN GAR TSE DBANG RAB BRTAN GYIS JUN GAR GYI SRID DBANG
BZUNG,

1699 12) SA YOS, RJE PHRIN LAS LHUN GRUB PA GSHEGS, PAD DKAR
'DZIN PA NGAG DBANG YE SHES RGYA MTSO 'BRAS SPUNGS SU PHEBS,
BTZAN PO NO MIN HAN 'DAS, RDZOGS CHEN SKU PHRENG GNYIS PA 'GYUR
MED THEG MCHOG BSTAN 'DZIN 'KHRUNGS, SDE SRID SANGS RGYAM PAS
SNYAN NGAG MCHAN 'GREL BRTZAMS, 'JAM DBYANGS BZHAD PA'I RDO RJES
GRUB MTHA' CHEN MO'I RANG 'GREL BRTZAMS,

1700 12) LCAGS 'BRUG 'JAM DBYANGS BZHAD PA'I RDO RJE 'BRAS
SPUNGS SGO MANG GI KHRIR 'KHOD, SI TU BSTAN PA'I NYIN BYED DAM
CHOS KYI 'BYUNG GNAS 'KHRUNGS, BSTAN 'DZIN D'A LI HAN 'DAS,

1701 12) LCAGS SBRUL, SDE SRID KYIS TSANGS DBYANGS RNAM THAR
BRTZAMS, DON YOD RGYA MTSO DGA' LDAN GYI KHRIR PHEBS,

1702 12) CHU RTA, SDE SRID SANGS RGYAS RGYA MTSO ZUR BZHUGS
MDZAD, T'A LA'I DRUG PA BKRAS LHUN DU PHEBS NAS PAn CHEN BLO
BZANG YE SHES LA SDOM PA PHUL THOG GONG MAR YANG ZHU BA PHUL,

1703 12) CHU LUG LHA BZANG KHANG DANG LHAN DU SDE SRID NGAG
DBANG RIN CHEN GYIS SBREL ZLA BYAS PA BRTZIS NA LHA BZANG GIS
BOD KYI SRID DBANG LO BCO LNGA BZUNG,

1704 12) SHING SPREL, SUM PA MKHAN PO YE SHES DPAL 'BYOR
'KHRUNGS, SDE SRID SANGS RGYAM PAS SMAN GYI KHOG DBUB BRTZAMS,
LHA BZANG GIS SDE SRID SANGS RGYAM PA'I DRUNG 'KHOR KHA SHAS
BSAD RKYEN SDE SRID KYIS LHA BZANG NAG CHUR PHUD,

1705 12) SHING BYA, MCHOD YON GNYIS 'KHRUG BOD DMAG BZHI BRGYA
BSAD, SDE SRID SANGS RGYAS

@3273

RGYA MTSO BKRONGS,

1706 12) ME KHYI, TSANGS DBYANGS RGYA MTSO KHRI LAS PHAB NAS PE
CIN DU BSKRAD, PAD DKAR 'DZIN PA NGAG DBANG YE SHES RGYA MTSO
KHRIR BKOD, LHA BZANG GCIG PUS BOD KYI SRID DBANG LO BCU GCIG
BZUNG,

1707 12) ME PHAG KHRI CHEN BLO BZANG DAR RGYAS DGA' LDAN GYI
KHRIR 'KHOD,

1708 12) SA BYI, RGYAL BA BDUN PA SKAL BZANG RGYA MTSO 'KHRUNGS,

1709 12) SA GLANG, 'JAM DBYANGS BZHAD PA'I RDO RJES BKRA SHIS
'KHYIL GYI DGON PA BTAB, MTSO SNGON DPON RIGS RNAMS NAS T'A LA'I
SKAL BZANG RGYA MTSO NGOS 'DZIN CHOG PA'I SNYAN ZHU PHUL, 1710
12) LCAGS STAG GONG MA KHANG SHIS 'JAM DBYANGS BZHAD RDOR LA
THAM GA DANG, CHO LO SPRAD,

1711 12) LCAGS YOS,

1712 12) CHU 'BRUG 'PHAGS PA LHA RGYAL BA RGYA MTSO GSHEGS, KHRI
CHEN DGE 'DUN PHUN TSOGS DGA' LDAN GYI KHRIR 'KHOD,

1713 12) CHU SBRUL, PAn CHEN BLO BZANG YE SHES LA GONG MA KHANG
SHIS NAS PAn CHEN AER TI NI ZHES PA'I GO GNAS DANG, 'JA' SA THAM
GA GNANG, DKA' CHEN YE SHES RGYAL MTSAN 'KHRUNGS,

1714 12) SHING RTA, GTER BDAG GLING PA 'GYUR MED RDO RJE 'DAS,
LO CHEN DHARMA SHR'IS RTZIS GZHUNG NYIN BYED SNANG BA BRTZAMS,
AA KHU BKRA SHIS BA THUR 'DAS, 'PHAGS PA LHA BSTAN PA'I MGON PO
'KHRUNGS, CO NE GRAGS PA BSHAD SGRUB KYIS CO NE DGON CHEN BTAB,
'JAM DBYANGS BZHAD RDOR GYIS 'JIGS BYED CHOS 'BYUNG BRTZAMS,
LCANG SKYA NGAG DBANG CHOS LDAN 'DAS,

1715 12) SHING LUG BOD DANG 'BRUG PA'I BAR 'KHRUG ZING BYUNG STE
SA SKYA BDAG CHEN DANG PAn CHEN BLO BZANG YE SHES GNYIS NAS BAR
'DUM MDZAD,

1716 12) ME SPREL, 'JAM DBYANGS BZHAD PA'I RDO RJES BSTAN RTZIS
RE'U MIG BRTZAMS SHING BKRA SHIS 'KHYIL DU RGYUD GRVA BTZUGS,

1717 12) ME BYA, LCANG SKYA ROL PA'I RDO RJE 'KHRUNGS, JUN GAR
TSE DBANG RAB BRTAN GYIS BTANG BA'I RTA DMAG DRUG STONG TZAM BOD
DU 'BYOR NAS LHA BZANG BSAD, STAG RTZE LHA RGYAL RAB BRTAN SRID
'DZIN DU BSKOS, PAD DKAR 'DZIN PA KHRI LAS PHAB,

1718 12) SA KHYI, SOG PO JUN GAR BA'I DMAG GIS BOD DU YOD PA'I
RNYING DGON MANG CHE BA

@3274

GTOR, DGE DGON KHAG LA ZHIB BSHER BYAS, MDO MKHAR ZHABS DRUNG
TSE RING DBANG RGYAL GYIS GZHON NU ZLA MED KYI RTOGS BRJOD
BRTZAMS, LO CHEN DHARMA SHR'I DANG, RIG 'DZIN PAD MA PHRIN LAS,
PAD MA 'GYUR MED RGYA MTSO RNAMS JUN GAR BAS BKRONGS,

1719 12) SA PHAG GONG MA KHANG SHIS BRAG GA-YAB CHE TSANG LA HO
THOG THU'I GO GNAS PHUL, KLONG RDOL BLA MA NGAG DBANG BLO BZANG
'KHRUNGS,

1720 12) LCAGS BYI, GONG MA KHANG SHIS SRAS CANG CUN MNGAGS TE
MTSO SNGON DPON RIGS RNAMS KYIS T'A LA'I BDUN PA SKAL BZANG RGYA
MTSO DBUS SU GDAN DRANGS TE PO TA LA'I KHRIR BKOD, SOG PO JUN
GAR GYI DPUNG RNAMS DBUS NAS BSKRAD, STAG RTZE LHA RGYAL RAB
BRTAN BSAD, RGYA BOD LHAN SBREL TSOGS 'DUS LO GCIG RING SRID
BZUNG, PO TA LA'I MDUN RDO RING GNYIS BTZUGS, CO NER BKA' 'GYUR
GYI PAR RKO TSUGS,

1721 12) LCAGS GLANG, 'DI SKABS TSOGS 'DU'I 'GO GTZO DA'I CHING
BA THUR BSOD NAMS RGYAL PO, NGA PHOD PA, LUM PA BA BCAS KYIS
SRID BZUNG, GONG MA KHANG SHIS DA'I CHING BA THUR LA PA'I SE'I
GO GNAS SPRAD DE BKA' BLON BYUNG, BSAM YAS DBU RTZE RIGS GSUM
DANG BCAS PA'I GSER 'PHRU MDA' YAB GSAR BZHENGS NYAMS GSO BYAS,
'GA' ZHIG GIS 'JAM DBYANGS BZHAD PA'I RDO RJE 'DAS ZER, 1722 12)
CHU STAG 'JAM DBYANGS BZHAD PA'I RDO RJE 'DAS,

1723 12) CHU YOS, GONG MA KHANG SHIS 'DAS, GONG MA YUNG tING
KHRIR 'KHOD, 'DAN MA SPRUL SKU NGAG DBANG BSTAN 'DZIN PHRIN LAS
DANG, SKU 'BUM MKHAN PO CHU BZANG BLO BZANG BSTAN PA'I RGYAL
MTSAN BKRONGS, MTSO SNGON GYI AOS LOD NAS NANG ZING BSLANGS PA
MAN CHING SRID GZHUNG GIS GTOR NAS AA MDO KHUL GYI DGON PA MANG
PO MER BSREGS, SUM PA MKHAN PO BOD DU 'BYOR,

1724 12) SHING 'BRUG GONG MA YUNG tING NAS T'A LA'I SKAL BZANG
RGYA MTSOR GSER SRANG SUM BRGYA YOD PA'I 'JA' SA DANG, NYIS
BRGYA LNGA BCU YOD PA'I GSER THAM GNANG, PE CIN DANG NYING SHA
KHUL DU SA GA-YOS KYIS MI GRONG MANG POR SKYON BYUNG, PHO LHA
BSOD NAMS STOBS RGYAL DANG, SBYAR RA BA BLO GROS RGYAL PO GNYIS
LA GONG MA YUNG tING NAS THA'I JI'I GO GNAS SPRAD DE BKA' BLON
DU BSKOS, KHRI CHEN DPAL LDAN GRAGS PA T'A LA'I BDUN PA'I YONGS
'DZIN DU BSKOS, T'A LA'I BDUN PA'I YAB LA GUNG GI GO GNAS DANG,
SGRO MIG GNYIS PA'I CHO LO BYUNG,

@3275

1725 12) SHING SBRUL, GONG MA YUNG tING NAS T'A LA'I BDUN PAR
BKA' 'GYUR PAR GSAR GYI PAR PHUD DANG, MA PHYI BCAS PHUL BA
TSOMS CHEN RNYING PAR YOD, KHRI CHEN DVAGS PO TSE 'PHEL BA DGA'
LDAN GYI KHRIR 'KHOD, CHING RGYAL RABS NAS ZI LING DU AAM BAN
GTONG 'GO TSUGS,

1726 12) ME RTA, KHANG CHEN PA DANG, NGA PHOD PA GNYIS LA BKA'
BLON BSKOS, JUN GAR TSE DBANG RAB BRTAN 'DAS,

1727 12) ME LUG SI TU CHOS 'BYUNG GIS SDE DGE DPAL SPUNGS DGON
THUB BSTAN CHOS 'KHOR GLING PHYAG BTAB, JUN GAR TSE DBANG RAB
BRTAN GYI BU DGA' LDAN TSE RING GIS LO BCU DGU SRID BZUNG, NGA
LUM SBYAR GSUM GYIS DA'I CHING BA THUR BSAD, PHO LHA BA GTZANG
DU BROS PA SOGS DBUS GTZANG DUS ZING GI RKYEN BYUNG, BOD DU GONG
MA'I SKU TSAB AAM BAN GTONG 'GO TSUGS,

1728 12) SA SPREL, 'JAM BZHAD 'JIGS MED DBANG PO 'KHRUNGS, T'A
LA'I BDUN PA MGAR THAR DU PHEBS, PHO LHA THA'I JI'I DMAG DPUNG
GIS NGA LUM SBYAR GSUM PHAM PAR BYAS NAS SRID DBANG BZUNG,

1729 12) SA BYA, 'DI LO LI THANG DANG RGYAL THANG KHUL DU ZLA BA
GNYIS PA'I NANG NYIN SHAS RING SA GA-YO SHUGS CHEN BYUNG, MI
NYAG MGAR THAR DGON PA GSAR DU BRGYAB, GONG MA'I BLON CHEN AA LI
HAN AAM BAN BOD DU 'BYOR NAS BKA' BLON GSUM SOGS TSAR BCAD, PHO
LHA BA BKA' BLON DU BSKOS, SI TU CHOS KYI 'BYUNG GNAS KYIS SUM
RTAGS 'GREL CHEN RTZOM 'GO TSUGS, KUN MKHYEN 'JIGS MED GLING PA
'KHRUNGS, SDE DGE'I RGYAL PO ZHE GNYIS PA CHOS RGYAL BSTAN PA
TSE RING GIS SDE DGE'I PAR KHANG BZHENGS PA DANG BKA' 'GYUR
MTSAL PAR GSAR BZHENGS DBU BTZUGS,

1730 12) LCAGS KHYI, 'DI LO MGAR THAR KHUL DU SA GA-YO THENGS
MANG PO BYUNG, PHA LHA THA'I JIS SNAR THANG BKA' 'GYUR PAR BRKOS
'GO TSUGS, RDO RING GUNG GI AA KHU KHANG CHEN 'DAS TSAB LA JO JO
RNAM RGYAL TSE BRTAN LA THA'I JI'I GO GNAS SPRAD, 1731 12) LCAGS
PHAG SUM PA MKHAN PO DBUS NAS AA MDOR LOG SNAR THANG BKA' 'GYUR
PAR MA BZHENGS GRUB,

1732 12) CHU BYI, KHRI PA RGYAL MTSAN SENG GE DGA' LDAN GYI
KHRIR 'KHOD, DPAL SPUNGS DBON RGAN KARMA NGES LEGS KYIS RTZIS
GZHUNG NYER MKHO BUM BZANG BRTZAMS,

1733 12) CHU GLANG, PHO LHA THA'I JI'I RE 'DUN LTAR BOD SDOD
DMAG DPUNG NYUNG DU BTANG, SI TU CHOS KYI 'BYUNG GNAS KYIS SDE
DGE'I BKA' 'GYUR DKAR CHAG BRTZAMS,

@3276

MDO MKHAR ZHABS DRUNG TSE RING DBANG RGYAL GYIS MI DBANG RTOGS
BRJOD BRTZAMS PA DANG SKAD GNYIS SHAN SBYAR NOR BU'I DO SHAL
BSGRIGS, SDE DGE'I CHOS RGYAL BSTAN PA TSE RING GIS BKA' 'GYUR
MTSAL PAR BZHENGS GRUB,

1734 12) SHING STAG GONG MA'I SKU TSAB LHA SRAS BCU BDUN PA DANG
LCANG SKYA ROL PA'I RDO RJE MGAR THAR DU 'BYOR NAS T'A LA'I BOD
DU PHYIR LOG PHEBS RGYU'I BKA' BSGYUR, ZHE CHEN RAB 'BYAMS GNYIS
PA 'GYUR MED KUN BZANG RNAM RGYAL GYIS ZHE CHEN BSTAN GNYIS DAR
RGYAS GLING BTAB,

1735 12) SHING YOS, T'A LA'I BDUN PA MGAR THAR NAS BOD DU PHYIR
PHEBS, GONG MA YUNG tING 'DAS, PHO LHA BSOD NAMS STOBS RGYAL
GYIS LHA SA DKYIL 'KHOR SDINGS SU BYAMS PA BZHENGS,

1736 12) ME 'BRUG GONG MA CHEN LUNG SRID KHRIR 'KHOD, SI TU CHOS
KYI 'BYUNG GNAS KYIS SUM RTAGS 'GREL CHEN SLAR YANG RTZOM 'GO
TSUGS,

1737 12) ME SBRUL, PAn CHEN BLO BZANG YE SHES 'DAS, THU'U BKVAN
BLO BZANG CHOS KYI NYI MA 'KHRUNGS, SUM PA MKHAN CHEN PE CIN DU
BSKYOD, STAG PHU PA BLO BZANG RGYA MTSOS MGRIN SNGON RTOGS BRJOD
BRTZAMS, SDE DGE'I BSTAN 'GYUR PAR GSAR BZHENGS DBU BTZUGS NAS
MJUG SDE DGE BLA MA KUN DGA' BKRA SHIS RGYA MTSOS BSKYANGS,

1738 12) SA RTA, PAn CHEN DPAL LDAN YE SHES 'KHRUNGS, T'A KO
SHR'I NGAG DBANG PHRIN LAS RGYA MTSO 'DAS, NYING SHA MKHAR DU SA
GA-YO CHEN PO BYUNG STE ZHIG

1739 12) SA LUG KHRI CHEN NGAG DBANG MCHOG LDAN DGA' LDAN GYI
KHRIR 'KHOD, SDE DGE RGYAL PO BSTAN PA TSE RING 'DAS,

1740 12) LCAGS SPREL, PHO LHA THA'I JIR JUN DBANG GI GO GNAS
BYUNG,

1741 12) LCAGS BYA, LO 'DI'I BOD ZLA BCU PA'I NANG PE CIN DU
BSTAN 'GYUR SOG SKAD DU SGYUR BA'I 'GO TSUGS, PHO LHA BSOD NAMS
STOBS RGYAL GYIS BSTAN 'GYUR SNAR THANG PAR MA PAR RKO BA'I 'GO
TSUGS, PAn CHEN DPAL LDAN YE SHES BKRA SHIS LHUN PO'I KHRIR
BKOD, BOD SA GNAS SRID GZHUNG BTZUGS NAS LO BRGYA THAM PA SONG,

1742 12) CHU KHYI, LO 'DI'I ZLA BA BCU GCIG PA'I TSES BCO LNGA
NYIN PE CIN DU BSTAN 'GYUR SOG SKAD LA SGYUR BA'I MJUG GRUB STE
PAR RKO 'GO TSUGS, SNAR THANG GI BSTAN 'GYUR PAR BRKOS ZIN,

1743 12) CHU PHAG BOD DU SKAR MA DUNG PHOD CHEN PO SHAR, ZHU
CHEN TSUL KHRIMS RIN CHEN GYIS SDE

@3277

DGE'I BSTAN 'GYUR DKAR CHAG BRTZAMS,

1744 12) SHING BYI, PE CIN DU GA-YUNG HVA DGON DGA' LDAN BYIN
CHAGS GLING BTAB, SI TU CHOS KYI 'BYUNG GNAS KYIS SUM RTAGS
'GREL CHEN BRTZAMS GRUB, T'A LA'I BDUN PA'I GCUNG KUN DGA' BSTAN
'DZIN LA GUNG GI GO GNAS BYUNG, SDE DGE'I BSTAN 'GYUR PAR
BZHENGS GRUB,

1745 12) SHING GLANG, RDO GRUB 'JIGS MED PHRIN LAS 'OD ZER
'KHRUNGS, JUN GAR RGYAL PO DGA' LDAN TSE RING GRONGS, KHAMS
SPRUL BSTAN 'DZIN CHOS KYI NYI MA 'KHRUNGS,

1746 12) ME STAG RDO RING BSTAN 'DZIN DPAL 'BYOR BTZAS, KHRI NAM
MKHA' BZANG PO DGA' LDAN GYI KHRIR 'KHOD, AA KYA TSE DBANG RDO
RJE RNAM RGYAL JUN GAR GYI RGYAL PO BYAS,

1747 RAB BYUNG BCU GSUM PA, ME YOS, 'DI LO'I ZLA BA GNYIS PA'I
TSES GNYIS LA MI DBANG BSOD NAMS STOBS RGYAL GRONGS, SRAS 'GYUR
MED RNAM RGYAL SRID 'DZIN DU BSKOS, SUM PA YE SHES DPAL 'BYOR
GYIS DGE LDAN RTZIS GSAR MA BU BRTZAMS,

1748 13) SA 'BRUG GONG MA CHEN LUNG NAS PO TA LA'I BKOD PA TSAD
LEN BYED PO BRIS PA GNYIS BTANG, SUM PA MKHAN CHEN GYIS CHOS
'BYUNG LJON BZANG BRTZAMS,

1749 13) SA SBRUL, T'A LA'I BDUN PAS RTZE PO TA LAR BLOS BSLANGS
DKYIL 'KHOR BZHENGS 'GO TSUGS,

1750 13) LCAGS RTA, WANG 'GYUR MED RNAM RGYAL NAS DGA' LDAN KHRI
CHEN NAM MKHA' BZANG PO GNAS DBYUNG BTANG, BLO BZANG DRI MED
DGA' LDAN GYI KHRIR 'KHOD, AAM BAN GNYIS NAS 'GYUR MED RNAM
RGYAL BKRONGS, JUN GAR BLA MA DAR RGYAS KYIS JUN GAR RGYAL PO
BYAS,

1751 13) LCAGS LUG 'GYUR MED TSE BRTAN GYI BU 'GYUR MED DBANG
RGYAL LA GUNG GI GO GNAS SPRAD, BOD KYI LAS DON BYED PHYOGS SKOR
DON TSAN BCU GSUM DU BSDUS PA'I RTZA TSIG 'GREMS SPEL BYAS, T'A
LA'I BDUN PA RANG NYID NAS SRID DBANG BZUNG, GONG MAS 'JA' SA
DANG, GSER THAM GNANG, BKA' BLON BZHI BSKOS NAS BKA' SHAG THOG
MAR BTZUGS,

1752 13) CHU SPREL, 'DI LO RTZE YIG TSANG LAS KHUNGS GSAR DU
BTZUGS,

1753 13) CHU BYA, MI NYAG GONG MA BLO GROS DAR RGYAS 'DAS,
'PHYONGS RGYAS MKHAN PO BSTAN 'DZIN RGYA MTSOS RTZIS GZHUNG
BEEd'URYA BZHAD PA'I 'DZUM DKAR BRTZAMS, JUN GAR GYI DPON PO TA
BA CHIS JUN GAR GYI RGYAL PO BYAS,

@3278

1754 13) SHING KHYI, RIN CHEN RIL BU SGRIL 'GO TSUGS SHING T'A
LA'I BDUN PAS RTZE SLOB GRVA BTZUd, RDO KHRA GNYIS KYI KHRAL
CHAG SKOR T'A LA'I BDUN PAS 'BRAS LJONGS PAR GTAN TSIG SPRAD,
NOR GLING SKAL BZANG PHO BRANG BTAB,

1755 13) SHING PHAG SLAR YANG CHING SRID GZHUNG GIS JUN GAR LA
DMAG BTANG NAS JUN GAR GYI SRID 'DZIN TA BA CHI BZUNG,

1756 13) ME BYI, 'DI LO'I LO GSAR RNYING MTSAMS SU BOD KHUL DANG
NAG TSANG DU SA GA-YO BYUNG, T'A LA'I BDUN PAS RTZE BLOS BSLANGS
KHANG DU GDAN SA GSUM DANG PO TA LA GNAS CHEN BZHI'I LDEBS RIS
GSAR 'BRI BYED DU BCUG

1757 13) ME GLANG, T'A LA'I BDUN PA 'DAS, DE MO BDE LEGS RGYA
MTSO KHRIR 'KHOD, LCANG SKYA ROL PA'I RDO RJE DBUS SU 'BYOR, BAL
PO'I YAM BU DANG, YE RUNG, KHO KHAM BCAS RGYAL SA GSUM GOR KHAS
BLANGS,

1758 13) SA STAG T'A LA'I BRGYAD PA 'JAM DPAL RGYA MTSO
'KHRUNGS,

1759 13) SA YOS, KHRI CHEN BSTAN PA RAB RGYAL DANG, SHING BZA'
BLO BZANG DAR RGYAS 'KHRUNGS, DE MO BDE LEGS RGYA MTSOR GONG MAS
'JA' SA DANG DNGUL THAM SPRAD, SOG PO BSTAN DAR LHA RAMS PA
'KHRUNGS,

1760 13) LCAGS 'BRUG DKA' CHEN YE SHES RGYAL MTSAN GYIS BYA
RGYUD DON GSAL BRTZAMS,

1761 13) LCAGS SBRUL,

1762 13) CHU RTA, GUNG THANG BSTAN PA'I SGRON ME 'KHRUNGS, T'A
LA'I BRGYAD PA PO TA LA'I KHRIR BKOD, PHUR LCOG NGAG DBANG BYAMS
PA 'DAS, KHRI SPRUL BLO BZANG BSTAN PA'I NYI MA 'KHRUNGS, MDO
MKHAR ZHABS DRUNG TSE RING DBANG RGYAL GYIS RANG GI RTOGS BRJOD
BRTZAMS, DKA' CHEN YE SHES RGYAL MTSAN GYIS BLO SBYONG CHEN MO
BRTZAMS,

1763 13) CHU LUG MDO MKHAR ZHABS DRUNG TSE RING DBANG RGYAL
GRONGS,

1764 13) SHING SPREL, CHING SRID GZHUNG DANG RGYAL RONG MI NUB
RGYAL PO'I BAR DMAG 'KHRUG BYUNG, KHRI CHEN NGAG DBANG CHOS
GRAGS DGA' LDAN GYI KHRIR 'KHOD,

1765 13) SHING BYA,

1766 13) ME KHYI, GONG MA CHEN LUNG GIS PAn CHEN DPAL LDAN YE
SHES LA 'JA' SA DANG GSER THAM GNANG,

1767 13) ME PHAG GONG MAS SKU MDUN MKHAN PO SKAL BZANG YON TAN
LA DZA SAG GI GO GNAS DANG SPRAGS NAS BKA' BLON BSKOS, KLU SDING
RIN CHEN MI 'GYUR RGYAL MTSAN

@3279

GYIS YID LHUNG LHA RGAL DGON BTAB,

1768 13) SA BYI, DKA' CHEN YE SHES RGYAL MTSAN GYIS BLA MCHOD
KHRID YIG BRTZAMS,

1769 13) SA GLANG,

1770 13) LCAGS STAG KHAMS SPRUL CHOS KYI NYI MAS SNYAN NGAG
'GREL PA BRTZAMS, DE MO BDE LEGS RGYA MTSOS BSAM YAS GTZUG LAG
KHANG NYAMS GSO BYED 'GO TSUGS,

1771 13) LCAGS YOS, GONG MA CHEN LUNG NAS NANG SOG GI ZHE HOR DU
PO TA LA'I PHO BRANG GSAR RGYAG BYAS, BKA' 'GYUR MAN JU SKAD DU
SGYUR BA'I 'GO TSUGS, CHING SRID GZHUNG DANG TSA KHO RAB BRTAN
RGYAL PO'I BAR DMAG 'KHRUG BYUNG, KHRI CHEN BLO BZANG BSTAN PA
DGA' LDAN GYI KHRIR 'KHOD,

1772 13) CHU 'BRUG SI TU CHOS KYI 'BYUNG GNAS KYIS SNYAN NGAG
'GYUR BCOS MDZAD, KHA CIG GIS DNGUL CHU DHARMA BHA TRA 'KHRUNGS
PAR BSHAD,

1773 13) CHU SBRUL, 'JAM BZHAD 'JIGS MED DBANG POS CO NE'I BSTAN
'GYUR DKAR CHAG MDZAD,

1774 13) SHING RTA, SI TU CHOS KYI 'BYUNG GNAS 'DAS, HRAN TUNG
RGYUD NAS CHING RGOL DMAG 'KHRUG BYUNG,

1775 13) SHING LUG

1776 13) ME SPREL, GONG MA CHEN LUNG GIS PAn CHEN DPAL LDAN YE
SHES PE CIN DU PHEBS DGOS PA'I GDAN ZHU'I BKA' 'BYOR,

1777 13) ME BYA, DE MO BDE LEGS RGYA MTSO 'DAS, TSE SMON GLING
KHRI CHEN NGAG DBANG TSUL KHRIMS SRID SKYONG GI KHRIR 'KHOD,

1778 13) SA KHYI, TSE SMON GLING NGAG DBANG TSUL KHRIMS DGA'
LDAN GYI KHRIR 'KHOD, RDO RING GUNG GIS SA NGAN DU DPUNG 'JUG
BYAS, PHO LHA BA 'GYUR MED DBANG RGYAL LA BU MED PAS PHUN TSOGS
DBANG PO'I BU NOR BU PHUN TSOGS LA GUNG GI GO GNAS SPRAD,

1779 13) SA PHAG PAn CHEN DPAL LDAN YE SHES RGYA NAG TU PHEBS
NAS GA-YANG tI'I THAM GA DANG, 'JA' SA, PHYAG MDZOD CHEN MOR AER
TIM THU NO MIN HAN DANG, GSOL DPON CHEN MOR MER RGAN MKHAN PO
BCAS KYI GO GNAS BYUNG,

1780 13) LCAGS BYI, PAn CHEN DPAL LDAN YE SHES PE CIN DU 'DAS,
RDO RING GUNG SA NGAN NAS 'KHOR, PAn CHEN GYI SKU GDUNG GDAN
'DREN PAR BOD GZHUNG GIS BKA' BLON THON PA BTANG, T'A LA'I
BRGYAD PA 'JAM DPAL RGYA MTSOS SRID DBANG BZUNG,

@3280

1781 13) LCAGS GLANG, T'A LA'I BRGYAD PAR GONG MA CHEN LUNG NAS
'JA' SA GSER THAM GNANG, PAn CHEN BSTAN PA'I NYI MA 'KHRUNGS,
DKA' CHEN YE SHES RGYAL MTSAN GYIS SKYES RABS 'GREL CHEN
BRTZAMS, ZHABS DKAR TSOGS DRUG RANG GROL 'KHRUNGS,

1782 13) CHU STAG DKA' CHEN YE SHES RGYAL MTSAN T'A LA'I BRGYAD
PA'I YONGS 'DZIN DU BSKOS, 'JOG RI NGAG DBANG BSTAN 'DZIN GYIS
TSAL GUNG THANG GI DKAR CHAG BRTZAMS,

1783 13) CHU YOS, RDO RING GUNG GI BU BSTAN 'DZIN DPAL 'BYOR
BKA' BLON DU BSKOS, DKA' CHEN YE SHES RGYAL MTSAN GYIS GNAS
BRTAN RTOGS BRJOD BRTZAMS, LHA SA GTZUG LAG KHANG DU NYAMS GSO
DANG, DPAG BSAM 'KHRI SHING GI LDEBS RIS GSAR BRIS BYAS, RIG
'DZIN 'JIGS MED GLING PAS GTAM TSOGS BRTZAMS,

1784 13) SHING 'BRUG PAn CHEN BSTAN PA'I NYI MA BKRA SHIS LHUN
POR GDAN DRANGS, T'A LA'I BRGYAD PA RANG NYID NAS TSE SMON GLING
NGAG DBANG TSUL KHRIMS DANG MNYAM 'BREL GYIS SRID KYI 'GAN KHUR,
GONG MA CHEN LUNG GIS PAn CHEN BSTAN PA'I NYI MAR 'JA' SA DANG
GSER THAM GNANG,

1785 13) SHING SBRUL,

1786 13) ME RTA, LCANG SKYA ROL PA'I RDO RJE 'DAS, SLAR YANG TSE
SMON GLING NGAG DBANG TSUL KHRIMS RGYA NAG TU PHEBS, DKA' CHEN
YE SHES RGYAL MTSAN GYIS BSTOD PA BRGYA LNGA BCU PA'I RNAM BSHAD
BRTZAMS,

1787 13) ME LUG DKA' CHEN YE SHES RGYAL MTSAN GYIS LAM RIM BLA
MA BRGYUD PA'I RNAM THAR BRTZAMS, RTA TSAG RJE DRUNG SBI LIG
THUS LO BZHI'I RING BKA' BLON GYI LAS ROGS BYED DGOS PA'I BKA'
PHAB PA LTAR MDZAD,

1788 13) SA SPREL, STAG LUNG BSTAN PA'I NYI MA 'KHRUNGS, SUM PA
MKHAN CHEN YE SHES DPAL 'BYOR 'DAS, LO 'DIR GOR KHAS BOD LA
THENGS GNYIS PA'I BTZAN 'DZUL BYAS TE GTZANG SHEL DKAR BA DMAG
GIS BCOM,

1789 13) SA BYA, DKA' CHEN YE SHES RGYAL MTSAN GYIS 'DUL BA'I
CHOS 'BYUNG BRTZAMS, T'A LA'I BRGYAD PAS GRIB TSE CHOG GLING GI
DGON PA BTAB,

1790 13) LCAGS KHYI,

1791 13) LCAGS PHAG TSE SMON GLING NGAG DBANG TSUL KHRIMS PE CIN
NAS BOD DU PHEBS TE RING MIN 'DAS, SLAR YANG GOR KHA DANG YBOD
BAR 'KHRUG ZING BYUNG NAS GOR KHA'I DMAG DPUNG GZHIS KA RTZE BAR
DU 'BYOR, SLAR YANG RTA TSAG BSTAN PA'I

@3281

MGON PO SRID SKYONG DU BSKOS,

1792   13) CHU BYI,   RTA TSAG RJE DRUNG LA GONG MAS CHO LO DANG
DNGUL THAM SPRAD, KUN BDE GLING GI DGON PA BTAB, 'DI LO GONG MA
CHEN LUNG NAS LHA SAR DO DAM PA BTANG STE, BOD DNGUL tAM ZHO,
PHYED DO, ZHO GANG, ZHO PHYED BCAS KYI PAR BRGYAB NAS BKRAM, GOR
KHA'I BTZAN 'DZUL 'GOG PA'I MAN JU SRID GZHUNG GI DMAG DPUNG BOD
DU 'BYOR,

1793   13) CHU GLANG,   GOR BOD ZING 'KHRUG THAG CHOD NAS GOR
KHA MGO BSGUR, BOD KYI LAS DON BYED PHYOGS SKOR DON TSAN NYER
DGU GTAN 'BEBS BYAS, RDZOGS SPRUL SKU PHRENG BZHI PA MI 'GYUR
NAM MKHA'I RDO RJE 'KHRUNGS,

1794   13) SHING STAG   PHO LHA GUNG NOR BU PHUN TSOGS 'DAS TSAB
RIN CHEN PHUN TSOGS LA GUNG GI GO SA BYUNG, T'A LA'I BRGYAD PAS
DKA' CHEN YE SHES RGYAL MTSAN GYI RNAM THAR BRTZAMS, ZHE CHEN
RAB 'BYAMS GSUM PA RIG 'DZIN DPAL 'BYOR RGYA MTSOS SGRUB SDE
PADMA GLING BTAB,

1795   13) SHING YOS,   KLONG RDOL BLA MA NGAG DBANG BLO BZANG
'DAS,

1796   13) ME 'BRUG   GONG MA CHEN LUNG 'DAS, GONG MA GYA CHING
SRID KHRIR 'KHOD, BIS PA NGAG DBANG MI PHAM ZLA BAS RTZIS GZHUNG
MKHAS PA'I SNYING NOR RTZOM 'GO TSUGS, GOR BOD CHINGS YIG BZHAG

1797   13) ME SBRUL,   LA SING NAS SA MTSAMS RTZOD MED DANG, LA
DVAGS SA SPYOD NAS LO 'BUL 'BUL GAN BZHAG

1798   13) SA RTA,   KUN MKHYEN 'JIGS MED GLING PA 'DAS,

1799   13) SA LUG   MON GYI ZHIB DPYOD DU BKA' BLON PHA LHA BA
PHYIN, NYAG RONG MGON PO RNAM RGYAL BTZAS,

1800   13) LCAGS SPREL,

1801   13) LCAGS BYA,   THU'U BKVAN CHOS KYI NYI MAS GRUB MTHA'
SHEL GYI ME LONG BRTZAMS,

1802   13) CHU KHYI,   THU'U BKVAN CHOS KYI NYI MA'I SLOB MA
NGAG DBANG MI PHAM ZLA BAS RTZIS GZHUNG MKHAS PA'I SNYING NOR
BRTZAMS, THU'U BKVAN CHOS KYI NYI MA 'DAS,

1803   13) CHU PHAG

1804   13) SHING BYI,   T'A LA'I BRGYAD PA 'JAM DPAL RGYA MTSO
'DAS, RTA TSAG RJE DRUNG SLAR YANG SRID SKYONG DU BSKOS,

1805   13) SHING GLANG,   T'A LA'I DGU PA LUNG RTOGS RGYA MTSO
'KHRUNGS, BKA' BLON BSHAD SGRA KUN

@3282

DGA' DPAL 'BYOR 'DAS,

1806   13) ME STAG

1807   RANG BYUNG BCU BZHI PA, ME YOS,

1808   14) SA 'BRUG   T'A LA'I DGU PA LUNG RTOGS RGYA MTSO PO TA
LA'I KHRIR BKOD, DPAL SPRUL 'JIGS MED CHOS KYI DBANG PO
'KHRUNGS,

1809   14) SA SBRUL,   'GA' ZHIG GIS DBYANGS CAN GRUB PA'I RDO
RJE 'KHRUNGS PAR BSHAD,

1810   14) LCAGS RTA,   RTA TSAG RJE DRUNG BSTAN PA'I MGON PO
'DAS, RDO RING PA BSTAN 'DZIN DPAL 'BYOR GYIS SUM RTAGS 'GREL PA
BRTZAMS, RDO GRUB CHEN 'JIGS MED PHRIN LAS 'OD ZER GYIS RDO GRUB
DGON PA PHYAG BTAB,

1811   14) LCAGS LUG   DE MO 'JIGS MED RGYA MTSO SRID SKYONG DU
BSKOS, GONG MAS CHO LO YANG SPRAD, KHRI CHEN BYANG CHUB CHOS
'PHEL T'A LA'I YONGS 'DZIN DU BSKOS,

1812   14) CHU SPREL,

1813   14) CHU BYA,   KUN MKHYEN PAD MA GAR DBANG BLO GROS MTHA'
YAS SAM 'CHI MED BSTAN GNYIS GA-YUNG DRUNG GLING PA'AM KONG
SPRUL YON TAN RGYA MTSO 'KHRUNGS,

1814   14) SHING KHYI,   'BRAS LJONGS SU DBYIN GOS BTZAN 'DZUL
BYED 'GO TSUGS,

1815   14) SHING PHAG   T'A LA'I DGU PA LUNG RTOGS RGYA MTSO
'DAS, GONG MAS RVA SGRENG DGON PA KHRI CHEN BSTAN PA RAB RGYAS
LA 'DZIN BDAG TU SPRAD, KHRI CHEN BYANG CHUB CHOS 'PHEL DGA'
LDAN GYI KHRIR 'KHOD, DE MO 'JIGS MED RGYA MTSO SLAR YANG SRID
SKYONG DU BSKOS,

1816   14) ME BYI,   T'A LA'I BCU PA TSUL KHRIMS RGYA MTSO
'KHRUNGS, BSAM YAS GTZUG LAG KHANG LA ME SHOR BA NYAMS GSO BYAS,

1817   14) ME GLANG,

1818   14) SA STAG   RGYAL DBANG PHRIN LAS RNAM RGYAL GYIS KHRI
CHEN BSTAN PA RAB RGYAS KYI RNAM THAR BRTZAMS,

1819   14) SA YOS,   DE MO 'JIGS MED RGYA MTSO 'DAS, TSE SMON
GLING 'JAM DPAL TSUL KHRIMS SRID SKYONG DU BSKOS,

1820   14) LCAGS 'BRUG   GONG MAS TSE SMON GLING 'JAM DPAL TSUL
KHRIMS LA CHO LO DANG, 'JA' SA SPRAD, GONG MA CA CHING 'DAS,
PADMA 'OD GSAL MDO SNGAGS GLING PA'AM

@3283

'JAM DBYANGS MKHYEN BRTZE'I DBANG PO 'KHRUNGS,

1821   14) LCAGS SBRUL,   GONG MA TA'O KONG KHRIR 'KHOD,

1822   14) CHU RTA,   T'A LA'I BCU PA TSUL KHRIMS RGYA MTSO PO
TA LA'I KHRIR BKOD, KHRI CHEN NGAG DBANG CHOS 'PHEL DGA' LDAN
GYI KHRIR 'KHOD, TSE SMON GLING 'JAM DPAL TSUL KHRIMS LA GONG
MAS 'JA' SA DANG THAM GA SPRAD, GUNG THANG BSTAN PA'I SGRON ME
'DAS,

1823   14) CHU LUG   SMAR KHAMS DANG SA NGAN 'KHRUG NAS BKA'
BLON BSHAD SGRA BA SONG, AA MCHOG MTSAN NYID DGON BTAB,

1824   14) SHING SPREL,   GUNG THANG DKON COG BSTAN PA'I RGYAL
MTSAN 'KHRUNGS,

1825   14) SHING BYA,   TSE SMON GLING 'JAM DPAL TSUL KHRIMS
KYIS TSE SMON GLING GI DGON PA BTAB,

1826   14) ME KHYI,   BKA' BLON ZUR KHANG PA TSE BRTAN RDO RJE
MON ZHIB TU SONG,

1827   14) ME PHAG

1828   14) SA BYI,

1829   14) SA GLANG,   GTER STON MCHOG GYUR BDE CHEN ZHIG PO
GLING PA 'KHRUNGS,

1830   14) LCAGS STAG   BKA' BLON BSHAD SGRA BA DON GRUB RDO RJE
DANG, RGYAL DBANG PHRIN LAS RNAM RGYAL NAS LCAGS STAG ZHIB
GZHUNG BKOD, LO 'DIR BTZAN PO 'JAM DPAL CHOS KYI BSTAN 'DZIN
PHRIN LAS KYIS 'DZAM GLING RGYAS BSHAD BRTZAMS,

1831   14) LCAGS YOS,   'GA' ZHIG GIS DNGUL CHU DHARMA BHA TRA
'KHRUNGS PAR 'DOD,

1832   14) CHU 'BRUG

1833   14) CHU SBRUL,   RGYAL MKHAN PO'I SPRUL SKU BSTAN PA
RGYAL MTSAN GYIS RTZIS GZHUNG MKHAS PA'I MGUL RGYAN BRTZAMS,

1834   14) SHING RTA,

1835   14) SHING LUG   SPO BO BKA' GNAM PAS KHRAL MA KHUR BAR
BRTEN DPUNG 'JUG BYAS, KHRI SPRUL BLO BZANG RGYAL MTSAN SENG GES
RTAGS 'JUG 'GREL PA NOR BU'I PHRENG BA BRTZAMS,

1836   14) ME SPREL,   KHRI SPRUL BLO BZANG RGYAL MTSAN SENG GES
SUM CU PA'I 'GREL PA NYIN BYED SNANG BA BRTZAMS,

1837   14) ME BYA,   T'A LA'I BCU PA TSUL KHRIMS RGYA MTSO 'DAS,

1838   14) SA KHYI,   T'A LA'I BCU GCIG PA MKHAS GRUB RGYA MTSO
'KHRUNGS,

@3284

1839   14) SA PHAG

1840   14) LCAGS BYI,   DPA' RI'I BLO BZANG RAB GSAL 'KHRUNGS,
TIS DMAR DGE BSHES KYIS SMAN DPE SHEL GONG PHRENG BRTZAMS,

1841   14) LCAGS GLANG,   LA DVAGS DANG SING PAS TSUR RGOL BYAS
PAR BRTEN BKA' BLON ZUR KHANG TSE RDOR DANG, MDO MKHAR 'GYUR MED
TSE DBANG BTANG NAS DPUNG 'JUG BYAS, BOD SA GNAS SRID GZHUNG
BTZUGS NAS LO NYIS BRGYA THAM PA SONG,

1842   14) CHU STAG   T'A LA'I BCU GCIG PA MKHAS GRUB RGYA MTSO
PO TA LA'I KHRIR BKOD, GONG MA TA'O KONG NAS 'JA' SA DANG GSER
THAM SPRAD, MAN JU'I SRID GZHUNG KRUNG DBYIN NAN CING CHINGS YIG
BZHG

1843   14) CHU YOS,   RGYAL DBANG PHRIN LAS RNAM RGYAL GYIS
RJE'I RNAM THAR CHEN MO RTZOM 'GO TSUGS,

1844   14) SHING   'BRUG TSE SMON GLING 'JAM DPAL TSUL KHRIMS
SRID KHRI LAS PHAB STE RGYA NAG TU BSKRAD, PAn CHEN BSTAN PA'I
NYI MAS ZLA BA PHYED DGU SRID BZUNG,

1845   14) SHING SBRUL,   RVA SGRENG NGAG DBANG YE SHES TSUL
KHRIMS SRID SKYONG DU BSKOS, GONG MAS CHO LO DANG THAM GA SPRAD,
GSER TOG BLO BZANG TSUL KHRIMS 'KHRUNGS,

1846   14) ME RTA,   'JU MI PHAM RNAM RGYAL RGYA MTSO 'KHRUNGS,

1847   14) ME LUG   BKA' BLON BSHAD SGRA BA DBANG PHYUG RGYAL PO
BRAG GA-YAB ZHIB DPYOD DU SONG,

1848   14) SA SPREL,

1849   14) SA BYA,   BRAG SGOM PA BSTAN PA RAB RGYAS KYIS MDO
SMAD CHOS 'BYUNG DEB THER RGYA MTSO BRTZAMS,

1850   14) LCAGS KHYI,   GONG MA TA'O KONG 'DAS,

1851   14) LCAGS PHAG   'DI LO DGUN STOD THA'I ? PHING THEN GO'I
GSAR BRJE 'GO TSUGS, BSAM YAS ZHIG GSOR BSHAD SGRA DBANG PHYUG
RGYAL PO BTANG, GONG MA ZHAN HONG KHRIR 'KHOD, ZHABS DKAR TSOGS
DRUG RANG GROL 'DAS,

1852   14) CHU BYI,

1853   14) CHU GLANG,   RVA SGRENG NGAG DBANG YE SHES TSUL
KHRIMS LA HO THOG THU'I GO GNAS DANG, PHYAG MDZOD LA DZA SAG GI
GO GNAS SPRAD, PAn CHEN BSTAN PA'I NYI MA 'DAS,

1854   14) SHING STAG   PAn CHEN BSTAN PA'I DBANG PHYUG
'KHRUNGS,

1855   14) SHING YOS,   'JAM BZHAD 'JIGS MED RGYA MTSO 'DAS, T'A
LA'I BCU GCIG PA RANG NYID NAS SRID KYI 'GAN KHUR GNANG YANG
RING MIN 'DAS, SLAR YANG RVA SGRENG SPRUL SKU NGAG DBANG YE SHES
TSUL KHRIMS SRID SKYONG DU BSKOS, GOR BOD ZING

@3285

'KHRUG BYUNG,

1856   14) ME 'BRUG   T'A LA'I BCU GNYIS PA PHRIN LAS RGYA MTSO
'KHRUNGS, 'JAM BZHAD SKAL BZANG THUB BSTAN DBANG PHYUG 'KHRUNGS,
GOR BOD BAR CHINGS YIG BZHAG

1857   14) ME SBRUL,

1858   14) SA RTA,

1859   14) SA LUG   RDO RING BKA' BLON SHO MDOR ZHIB DPYOD DU
MNGAGS,

1860   14) LCAGS SPREL,   T'A LA'I BCU GNYIS PA PHRIN LAS RGYA
MTSO PO TA LA'I KHRIR BKOD,

1861   14) LCAGS BYA,   GONG MA ZHAN HONG 'DAS,

1862   14) CHU KHYI,   GONG MA THUNG KRI SRID KHRIR 'KHOD, 'BRAS
SPUNGS RIGS GRA'I GTONG SGO'I SKOR DUS ZING BYUNG, RVA SGRENG
SRID SKYONG RGYA NAG TU BROS, BSHAD SGRA BA SRID SKYONG DU
BSKOS, RGYAL DBANG PHRIN LAS RNAM RGYAL 'DAS,

1863   14) CHU PHAG   BOD GZHUNG GIS NYAG RONG DU DMAG DRANGS TE
MGON PO RNAM RGYAL BSAD, NYAG RONG DBANG DU BSDUS,

1864   14) SHING BYI,   THA'E PHING THEN GO'I GSAR BRJER PHAM
NYES BYUNG, BSHAD SGRA BA 'DAS, SDE DRUG MKHYEN RAB DBANG PHYUG
SRID SKYONG DU BSKOS, GONG MAS CHO LO DANG THAM GA SPRAD,

1865   14) SHING GLANG,   BRAG DGON BSTAN PA RAB RGYAS KYIS MDO
SMAD CHOS 'BYUNG DEB THER RGYA MTSO BRTZAMS GRUB, GONG MAS NYAG
ONG GI SA KHUL RNAMS T'A LA'I MNGA' KHONGS SU SPRAD,

1866   14) ME STAG   DNGUL CHU DHA RMA BHA TRAS SUM RTAGS 'GREL
PA SI TU'I ZHAL LUNG BRTZAMS, LO 'DIR SUN KRUNG HRAN BTZAS, CHIN
AAM BAN DANG, SRID ZUR RVA SGRENG GNYIS RVA SGRENG DU 'BYOR,

1867   RAB BYUNG BCO LNGA PA, ME YOS, 'O RDZONG PAndI TAS RTZIS
GZHUNG RNAM GSAL 'OD KYI THIG LE BRTZAMS,

1868   15) SA 'BRUG   T'A LA'I BCU GNYIS PA SMON LAM GYI TSOGS
DBUR PHEBS PA 'DI NAS LAM SROL THOG MAR BTOD, DNGUL CHU DBYANGS
CAN GRUB PA'I RDO RJE 'KHRUNGS,

1869   15) SA SBRUL,

1870   15) LCAGS RTA,   GTER STON MCHOG GYUR BDE CHEN ZHIG PO
GLING PA 'DAS, RNGA BA'I KIRTI'I DGON GSAR BTAB,

@3286

1871   15) LCAGS LUG   SPYI KHYAB MKHAN PO DPAL LDAN DON GRUB
KYI RKYEN GYIS DGA' LDAN ZING 'KHRUG BYUNG,

1872   15) CHU SPREL,

1873   15) CHU BYA,   SDE DRUG SPRUL SKU MKHYEN RAB DBANG PHYUG
'DAS, T'A LA'I BCU GNYIS PA RANG NYID NAS SRID KYI 'GAN KHUR
MDZAD,

1874   15) SHING KHYI,   GONG MA THUNG KRI 'DAS,

1875   15) SHING PHAG   GONG MA KONG ZHU'I KHRIR 'KHOD, T'A LA'I
BCU GNYIS PA PHRIN LAS RGYA MTSO 'DAS, RTA TSAG RJE DRUNG NGAG
DBANG DPAL LDAN SRID SKYONG DU BSKOS,

1876   15) ME BYI,   T'A LA'I BCU GSUM PA THUB BSTAN RGYA MTSO
'KHRUNGS,

1877   15) ME GLANG,   RTA TSAG RJE DRUNG NGAG DBANG DPAL LA
GONG MAS CHO LO SPRAD,

1878   15) SA STAG   LO 'DIR KONG SPRUL YON TAN RGYA MTSOS SMAN
GZHUNG ZIN TIG BRTZAMS,

1879   15) SA YOS,   T'A LA'I BCU GSUM PA THUB BSTAN RGYA MTSO
PO TA LA'I KHRIR BKOD, BSE BLO BZANG BKRA SHIS RAB RGYAS 'DAS,

1880   15) LCAGS 'BRUG   KA:THOG SI TU CHOS KYI RGYA MTSO
'KHRUNGS,

1881   15) LCAGS SBRUL,

1882   15) CHU RTA,   PAn CHEN BSTAN PA'I DBANG PHYUG 'DAS,

1883   15) CHU LUG   PAn CHEN CHOS KYI NYI MA 'KHRUNGS,

1884   15) SHING SPREL,

1885   15) SHING BYA,

1886   15) ME KHYI,   RTA TSAG RJE DRUNG NGAG DBANG DPAL LDAN
'DAS, DE MO PHRIN LAS RAB RGYAS SRID 'DZIN DU BSKOS, DBYIN JIS
BOD LA BTZAN 'DZUL THENGS DANG PO BYED 'GO TSUGS,

1887   15) ME PHAG   DPAL SPRUL 'JIGS MED CHOS KYI DBANG PO
'DAS,

1888   15) SA BYI,   DBYIN JIS PHAG RIR BTZAN 'DZUL BYAS TE
DBYIN BOD DMAG ZING BYUNG,

1889   15) SA GLANG,   BKA' BLON BSHAD SGRA BA, BKRAS KHANG SPYI
KHYAB MKHAN PO, BKA' BLON GA-YU THOG PA BCAS GNAS DBYUNG BTANG,
DKRUNG DBBYIN CHINGS 'JOG TU HRIN THA'I AAM BAN DANG, BKA' BLON
LHA KLU SONG,

1890   15) LCAGS STAG   BOD DANG RGYA GAR GYI SA MTSAMS SKOR LA
KA LI KA TAR HRIN THA'I AAM BAN DANG, DBYIN TSAB MO LUG LAR BCAS
KRUNG DBYIN CHINGS YIG DON TSAN

@3287

BRGYAD BZHAG

1891   15) LCAGS YOS,   GSER TOG SPRUL SKU BLO BZANG TSUL KHRIMS
KYIS SUM RTAGS 'GREL PA BBRTZAMS, BKA' BLON BSHAD SGRA BA RDO
RJE GLING RGYA BOD GROS TSOGS SU BSKYOD,

1892   15) CHU 'BRUG   'JAM DBYANGS MKHYEN BRTZE'I DBANG PO
'DAS,

1893   15) CHU SBRUL,   SNA GDONG TSONG RA'I SKOR DANG, 'GRIM
'GRUL, SBRAGS TAR KHRIMS LUGS BCAS SKOR DBYIN BOD CHINGS YIG DON
TSAN DGU BZHAG

1894   15) SHING RTA,   LO 'DIR KRUNG RI'I BAR DMAG 'KHRUG
BYUNG, CHING RGYAL RABS SRID GZHUNG NAS KRUNG RI MA GON CHINGS
YIG BZHAG

1895   15) SHING LUG   T'A LA'I BCU GSUM PA RANG NYID NAS SRID
KYI 'GAN KHUR GNANG, ZI LING SOGS SA KHUL KHA SHAS SU CHING
RGYAL RABS LA NGO RGOL GYI 'OS LANGS BYUNG,

1896   15) ME SPREL,

1897   15) ME BYA,

1898   15) SA KHYI,

1899   15) SA PHAG   DE MO PHRIN LAS RAB RGYAS SPUN MCHED NAS
T'A LA'I LA NGAN GTAD BYED SKOR 'DZIN BZUNG BTZON BCUG THOG STOD
SA DGAR RGYANG PHUD BTANG NAS RI SHUR ZHIG NANG BKRONGS, KONG
SPRUL YON TAN RGYA MTSO 'DAS, NYAG SPRUL RANG SHI BYAS ZER,

1900   15) LCAGS BYI,   T'A LA'I BCU GSUM PAS MTSAN ZHABS SOG PO
RDO RJE ZER BA SOGS HRA HONG GONG MA'I SAR BTANG,

1901   15) LCAGS GLANG,   SOG PO RDO RJE SLAR YANG HRA HONG GONG
MA'I SAR PHYIN,

1902   15) CHU STAG   DBYIN JI'I DMAG MI NYIS BRGYAS GTZANG LA
BTZAN 'DZUL BYAS,

1903   15) CHU YOS,   GAM 'BRAS MTHA' MTSAMS SU DBYIN JI'I DMAG
GIS BTZAN 'DZUL BYAS STABS BKA' BLON BSHAD SGRA BA GNAS DBYUNG
BTANG,

1904   15) SHING 'BRUG   T'A LA'I BCU GSUM PA SOG YUL BRGYUD PE
CIN DU PHEBS, DBYIN JI'I BTZAN 'DZUL DMAG LHA SAR SLEBS, LHA
SA'I CHINGS YIG 'JOG TU BCUG

1905   15) SHING SBRUL,   PAn CHEN CHOS KYI NYI MA DBYIN JIS
BTZAN KHRID BYAS,

1906   15) ME RTA,   KRUNG DBYIN CHINGS YIG GSAR PA PE CIN DU
BZHAG DE'I NANG DU LHA SA'I CHINGS YIG KYANG ZUR DU BKOD, T'A
LA'I BCU GSUM PA RDA KHU RAL NAS SKU 'BUM DU PHEBS,

1907   15) ME LUG   KHRI ZUR BLO BZANG RGYAL MTSAN SRID SKYONG
DU BSKOS, LAS ROGS SU BLON CHEN

@3288

BSHAD SGRA BA DANG, ZHOL KHANG, CHANG KHYIM PA BCAS BSKOS, KRANG
T'A RIN AAM BAN 'BYOR NAS JA TSVA LAS KHUNGS DANG, SO NAM LAS
KHUNGS BTZUGS,

1908   15) SA SPREL,   T'A LA'I BCU GSUM PA DANG GONG MA KONG
ZHU'I MJAL 'PHRAD MDZAD, GONG MAS T'A LA'I LA 'JA' SA THAM GA
GNANG, GONG MA KONG ZHU'I 'DAS, BYA TSANG GIS BYA KHYUNG GDAN
RABS BRTZAMS, 'JU MI PHAM PAS DUS 'KHOR 'GREL CHEN BRTZAMS,

1909   15) SA BYA,   GONG MA SHON THONG KHRIR 'KHOD, T'A LA'I
BCU GSUM PA BOD DU 'BYOR, 'JU MI PHAM RNAM RGYAL RGYA MTSOS
SNYAN NGAG 'GREL PA BRTZAMS,

1910   15) LCAGS KHYI,   LU CUN DPUNG DMAG LHA SAR 'BYOR, TSE
SMON GLING KHRI ZUR LA SRID SKYONG LAS TSAB BSKOS, T'A LA'I RANG
NYID RGYA GAR DU BROS,

1911   15) LCAGS PHAG   SUN KRUNG HRAN GYIS 'GO KHRID NAS CHING
RGYAL RABS SRID GZHUNG GTOR, 'DI LA LCAGS PHAG GSAR BRJE ZER,
CHING RGYAL RABS RDZOGS, T'A LA'I BCU GSUM PAS TSA SPRUL NGAG
DBANG BLO BZANG RI PIN DU MNGAGS, BOD DU SHOG DNGUL SRANG LNGA
DANG, SRANG BDUN ZHO LNGA, SRANG BDUN, SRANG NYI SHU RTZA LNGA,
SRANG BRGYA THAM PA CAN BCAS DANG, ZANGS dAM BCU SGOR SOGS
BKRAM,

1912   15) CHU BYI,   SDE DGE 'JU MI PHAM RNAM RGYAL 'DAS, NGAG
DBANG YON TAN GYIS DAG YIG KUN BTUS BRTZAMS, NAN CIN DU GO MIN
TANG GI SRID GZHUNG BTZUGS, SUN KRUNG HRAN TZUNG THUNG DU BDAMS,

1913   15) CHU GLANG,   LUGS DANG MI MTHUN PA'I SIM LA'I TSOGS
'DU 'TSOGS,

1914   15) SHING STAG   'DZAM GLING DMAG CHEN DANG PO LANGS,
DBYIN JIS SIM LA'I CHINGS YIG ZER BA DANG ME KHE MA HUNG SA THIG
ZER BA BTON PA DER KRUNG GO'I SRID GZHUNG GIS MTHA' GCIG TU NGO
RGOL BYAS,

1915   15) SHING YOS,   GSER TOG SPRUL SKU BLO BZANG TSUL KHRIMS
'DAS, SA NGAN PHYOGS LA SA GA-YO BYUNG NAS MI GRONG MANG POR
SKYON BYUNG, YON HRI KHES GONG MA BYAS,

1916   15) ME 'BRUG   LHA SA'I SMAN RTZIS KHANG TSUGS,

1917   15) ME SBRUL,   CHAB MDOR RGYA BOD BAR 'KHRUG ZING BYUNG,

1918   15) SA RTA,   'DI LO DGUN KHAR 'DZAM GLING DMAG CHEN DANG
PO MJUG 'GRIL, 'JAM DBYANGS CHOS KYI BLO GROS KYIS SDE DGE
RDZONG GSAR KHAMS BYE BSHAD GRVA BSHAD SGRUB DAR RGYAS GLING
BTAB,

1919   15) SA LUG   'DI LO'I DBYAR KHAR PE CIN DU LNGA BZHI'I
LAS 'GUL BYUNG,

@3289

1920   15) LCAGS SPREL,   BKA' BLON BSHAD SGRA BA DANG, CHANG
KHYIM PA GRONGS,

1921   15) LCAGS BYA,   'DI LO'I DBYAR KHAR HRANG HAD DU KRUNG
GO GUNG KHRAN TANG BTZUGS, BKA' BLON BYAMS PA BSTAN DAR GRONGS,
T'A LA'I DANG PAn CHEN MTHUN MIN LA BRTEN PAn CHEN BYANG LAM
BRGYUD RGYA NAG TU BROS,

1922   15) CHU KHYI,   T'A LA'I BCU GSUM PAS SPYAN GSAL PHO
BRANG GSAR RGYAG MDZAD,

1923   15) CHU PHAG   HAL HA RJE BTZUN DAM PA 'DAS,

1924   15) SHING BYI,   SUN KRUNG HRAN KONG KRO'U NAS THON TE
BYANG BSKYOD BSGRAGS GTAM SPEL, KRUNG GOS PHYI RGYAL GYI LAG NAS
BTZAN GA-YAR SA CHA LEN 'GO TSUGS,

1925   15) SHING GLANG,   HRANG HAD DU LNGA PA'I SUM CU'I LAS
'GUL BYUNG, KA:THOG SI TU CHOS KYI RGYA MTSO 'DAS, BOD LA SBRAGS
KHANG DANG TAR KHANG TSUGS,

1926   15) ME STAG   SUN KRUNG HRAN 'DAS, GO GUNG TANG GNYIS KHA
BRAL DU SONG, BKA' BLON ZHOL KHANG 'DAS, GLANG MDUN KUN DGA'
DBANG PHYUG SRID BLON DU BSKOS,

1927   15) RAB BYUNG   BCU, DRUG PA, ME YOS, CANG CE HRIS GSAR
BRJER NGO LOG BYAS, NAN KHRANG 'OS LANGS BYUNG, KRUNG GO GUNG
KHRAN TANG GIS BZO ZHING DMAR DMAG GI 'GO KHRID NAS GSAR BRJE'I
GNAS GZHI DANG MI DMANGS KYI SRID DBANG BTZUGS,

1928   16) SA 'GRUG   SPO BO KA GNAM SDE PA BDUD 'DUL NAS BOD
GZHUNG LA NGO LOG ZING 'KHRUG BSLANGS, GO MIN TANG SRID GZHUNG
GI BOD SOG AU YON LHAN KHANG TSUGS,

1929   16) SA SBRUL,   BOD GZHUNG GIS SPO BO KA GNAM SDE PA'I
DMAG PHAM PAR BYAS, SDE PA BDUD 'DUL RGYA GAR DU BROS NAS DBYIN
JIR MGO BTAGS,

1930   16) LCAGS RTA,   GO MIN TANG SRID GZHUNG DANG BOD SA GNAS
BAR 'BREL BA BYUNG STE NAN CIN CIN SDOD DON GCOD LAS KHUNGS
BTZUGS,

1931   16) LCAGS LUG   ZLA BA DGU PA'I TSES BCO BRGYAD KYI DUS
'GYUR BYUNG, T'A LA'I DANG PAn CHEN GYIS KRUNG DBYANG LA RGYAB
SKYOR DANG RI 'GOG BYED 'DOD KYI BSGRd GTAM SPEL,

1932   16) CHU SPREL,   BOD GZHUNG GIS GRONG DRAG DMAG BSKUL
BYAS,

1933   16) CHU BYA,   T'A LA'I BCU GSUM PA 'DAS,

1934   16) SHING KHYI,   RVA SGRENG SPRUL SKU BOD KYI SRID 'DZIN
DU BSKOS, GO MIN TANG SRID GZHUNG GI SKU TSAB HUNG MU'U SUNG BOD
DU MCHOD 'BUL LA 'BYOR NAS LHA SAR BOD SOG AU YON LHAN KHANG GI
DON GCOD LAS KHUNGS BTZUGS,

1935   16) SHING PHAG   KRUNG GO GUNG KHRAN TANG GI TZUN DBYI
GROS TSOGS 'TSOGS, SA KHUL KHA SHAS SU SA GA-YO CHEN PO BYUNG,
T'A LA'I SKU PHRENG BCU BZHI PA BSTAN 'DZIN RGYA

@3290

MTSO 'KHRUNGS, MDO KHAMS GLING TSANG RDZA PA BKRA SHIS 'OD ZER
'JA' LUS SU DENGS,

1936   16) ME BYI,   DMAR DMAG GIS DKAR MDZES SA KHUL GYI MI
DMANGS LA BOD PA SRID GZHUNG 'DZUGS ROGS BYAS,

1937   16) ME GLANG,   RI 'GOG DMAG 'KHRUG 'GO TSUGS, PAn CHEN
CHOS KYI NYI MA 'DAS, RDZA PA BKRA SHIS 'OD ZER GYI RGYAL TSAB
BLO GROS RGYAL MTSAN 'JA' LUS SU DENGS,

1938   16) SA STAG   PAn CHEN BCU PA CHOS KYI RGYAL MTSAN
'KHRUNGS, MGO LOG SA KHUL GYI BOD RIGS KYIS MTSO SNGON GYI DMAG
SHED CAN LA NGO RGOL BYAS,

1939   16) SA YOS,   T'A LA'I BCU BZHI PA LHA SAR THOG MAR
PHEBS, SHIS KHAMS ZHING CHEN DNGOS SU TSUGS, 'DZAM GLING DMAG
CHEN GNYIS PA LANGS,

1940   16) LCAGS 'BRUG   T'A LA'I BCU BZHI PA BSTAN 'DZIN RGYA
MTSO PO TA LA'I KHRIR BKOD, RVA SGRENG SPRUL SKU GNAS DBYUNG
BTANG,

1941   16) LCAGS SBRUL,   STAG BRAG SPRUL SKU BOD KYI SRID 'DZIN
DU BSKOS,

1942   16) CHU RTA,   AA RIS MKHA' THOG NAS BOD LA SA BKRA'I PAR
BRGYAB,

1943   16) CHU LUG   BOD GZHUNG GIS PHYI RGYAL LAS KHUNGS ZER BA
BTZUGS,

1944   16) SHING SPREL,   DBYIN JI'I DMAG GIS RTA DBANG SA KHUL
DU BTZAN 'DZUL BYAS,

1945   16) SHING BYA,   'DZAM GLING DMAG CHEN GNYIS PA MJUG
'GRIL,

1946  16) ME KHYI,   MDO SMAD PA DGE 'DUN CHOS 'PHEL GYIS DEB
THER DKAR PO BRTZAMS, DEB THER DKAR POR SANGS RGYAS MYA NGAN LAS
'DAS NAS LO NYIS STONG BZHI BRGYA DGU BCU 'DAS ZHES GSUNGS,

1947   16) ME PHAG   BOD GZHUNG GIS RVA SGRENG 'DZIN BZUNG BYAS
TE BKRONGS, SE RA LA ZING 'KHRUG BYUNG,

1948   16) SA BYI,   AA RI DANG DBYIN JI'I RGYAB SKYOR 'OG BOD
KYI TSONG DON 'THUS MI'I HTSOGS PA ZER BA ZHIG AA RI SOGS PHYI
RGYAL KHAG LA BTANG,

1949   16) SA GLANG,   BOD GZHUNG GIS LHA SA'I RGYA RIGS RNAMS
PHYIR 'BUD BYAS, KRUNG HRA MI DMANGS SPYI MTHUN RGYAL KHAB DNGOS
SU BTZUGS